(dp0
S'cookies'
p1
(dp2
S'wxloadtime'
p3
S'1503727091'
p4
sS'webwx_data_ticket'
p5
S'gSd3iypy7uC0d1I2+2auqrwN'
p6
sS'wxuin'
p7
S'454684975'
p8
sS'login_frequency'
p9
S'2'
p10
sS'MM_WX_NOTIFY_STATE'
p11
S'1'
p12
sS'MM_WX_SOUND_STATE'
p13
g12
sS'webwx_auth_ticket'
p14
S'CIsBEN/o/NoEGoAB6N9hshMbQj7ON4WsiJw/SWNrsv6eKaFR+RbMWWF1+ccI0olzk1997WulGb0c5NPu3AWNHLhP7h9F4xy3unz+aEt7yM8/shjx+z9etRh88ySH76AiFXIFAyN1eIaSDT2gjZ989vNgEnCYwY2e2uEE0s7X6qJG6dTsdKRnaKNMh3s='
p15
sS'last_wxuin'
p16
S'454684975'
p17
sS'webwxuvid'
p18
S'ca0394052f416c340f82dace978d60bd89289946dfe17b668caddd6f42aaabb2555496edb604caab2193fc5e67dec360'
p19
sS'wxpluginkey'
p20
S'1503726736'
p21
sS'wxsid'
p22
S'noEyP6t4ZMJ4eTEy'
p23
sS'mm_lang'
p24
S'zh_CN'
p25
ssS'version'
p26
S'1.3.9'
p27
sS'storage'
p28
(dp29
S'userName'
p30
V@ef2b8f2187cc6fc935d008a0d8a3715a
p31
sS'lastInputUserName'
p32
NsS'memberList'
p33
ccopy_reg
_reconstructor
p34
(citchat.storage.templates
ContactList
p35
c__builtin__
list
p36
(lp37
g34
(citchat.storage.templates
User
p38
c__builtin__
dict
p39
(dp40
S'UserName'
p41
V@ef2b8f2187cc6fc935d008a0d8a3715a
p42
sS'City'
p43
S''
p44
sS'DisplayName'
p45
g44
sS'UniFriend'
p46
I0
sS'OwnerUin'
p47
I0
sS'MemberList'
p48
g34
(g35
g36
(lp49
tp50
Rp51
I1
bsS'PYQuanPin'
p52
Vyijiyiqi
p53
sS'RemarkPYInitial'
p54
V
p55
sS'Uin'
p56
I454684975
sS'AppAccountFlag'
p57
I0
sS'VerifyFlag'
p58
I0
sS'Province'
p59
g44
sS'KeyWord'
p60
Vki7
p61
sS'RemarkName'
p62
g55
sS'PYInitial'
p63
VYJYQ
p64
sS'ChatRoomId'
p65
I0
sVIsOwner
p66
I0
sS'HideInputBarFlag'
p67
I0
sVHeadImgFlag
p68
I1
sS'EncryChatRoomId'
p69
g44
sS'AttrStatus'
p70
I33793127
sS'SnsFlag'
p71
I17
sS'MemberCount'
p72
I0
sVWebWxPluginSwitch
p73
I0
sS'Alias'
p74
g44
sS'Signature'
p75
V896\uff0c7\u50cf\u72d7
p76
sS'ContactFlag'
p77
I5
sS'NickName'
p78
V\u4e00\u671f\u4e00\u7948
p79
sS'RemarkPYQuanPin'
p80
g55
sS'HeadImgUrl'
p81
V/cgi-bin/mmwebwx-bin/webwxgeticon?seq=683307191&username=@ef2b8f2187cc6fc935d008a0d8a3715a&skey=@crypt_d5e09b21_f6d4eb8ff700a7cb445282cdd5f699d7
p82
sS'Sex'
p83
I1
sS'StarFriend'
p84
I0
sS'Statues'
p85
I0
stp86
Rp87
I1
bag34
(g38
g39
(dp88
VUserName
p89
V@2ca0f8ba020bf9bd536619989b16a34c
p90
sVCity
p91
g55
sVSnsFlag
p92
I17
sVDisplayName
p93
g55
sVUniFriend
p94
I0
sVMemberCount
p95
I0
sVOwnerUin
p96
I0
sVMemberList
p97
g51
sVAlias
p98
g55
sVPYQuanPin
p99
Vnull
p100
sVSignature
p101
g55
sVRemarkPYInitial
p102
VZNN
p103
sVContactFlag
p104
I3
sVUin
p105
I0
sVNickName
p106
Vnull
p107
sVAppAccountFlag
p108
I0
sVVerifyFlag
p109
I0
sVRemarkPYQuanPin
p110
Vzhangningning
p111
sVHeadImgUrl
p112
V/cgi-bin/mmwebwx-bin/webwxgeticon?seq=683291235&username=@2ca0f8ba020bf9bd536619989b16a34c&skey=@crypt_d5e09b21_f6d4eb8ff700a7cb445282cdd5f699d7
p113
sVKeyWord
p114
Vznn
p115
sVProvince
p116
g55
sVPYInitial
p117
VNULL
p118
sVRemarkName
p119
V\u5f20\u5b81\u5b81
p120
sVIsOwner
p121
I0
sVSex
p122
I1
sVStarFriend
p123
I0
sVHideInputBarFlag
p124
I0
sVChatRoomId
p125
I0
sVEncryChatRoomId
p126
g55
sVAttrStatus
p127
I33728743
sVStatues
p128
I0
stp129
Rp130
I1
bag34
(g38
g39
(dp131
VUserName
p132
V@1b33cd4c74b900c9771c5403a33189af
p133
sVCity
p134
V\u94f6\u5ddd
p135
sVSnsFlag
p136
I49
sVDisplayName
p137
g55
sVUniFriend
p138
I0
sVMemberCount
p139
I0
sVOwnerUin
p140
I0
sVMemberList
p141
g51
sVAlias
p142
g55
sVPYQuanPin
p143
Vzhangyi
p144
sVSignature
p145
V17398467921
p146
sVRemarkPYInitial
p147
g55
sVContactFlag
p148
I3
sVUin
p149
I0
sVNickName
p150
V\u5f20\u4e00
p151
sVAppAccountFlag
p152
I0
sVVerifyFlag
p153
I0
sVRemarkPYQuanPin
p154
g55
sVHeadImgUrl
p155
V/cgi-bin/mmwebwx-bin/webwxgeticon?seq=683298596&username=@1b33cd4c74b900c9771c5403a33189af&skey=@crypt_d5e09b21_f6d4eb8ff700a7cb445282cdd5f699d7
p156
sVKeyWord
p157
Vzha
p158
sVProvince
p159
V\u5b81\u590f
p160
sVPYInitial
p161
VZY
p162
sVRemarkName
p163
g55
sVIsOwner
p164
I0
sVSex
p165
I1
sVStarFriend
p166
I0
sVHideInputBarFlag
p167
I0
sVChatRoomId
p168
I0
sVEncryChatRoomId
p169
g55
sVAttrStatus
p170
I100711
sVStatues
p171
I0
stp172
Rp173
I1
bag34
(g38
g39
(dp174
VUserName
p175
V@d4e79fee452d0f1d76ce38f65bf6941e8665658ace2a443367bb5e924e359d92
p176
sVCity
p177
g55
sVSnsFlag
p178
I17
sVDisplayName
p179
g55
sVUniFriend
p180
I0
sVMemberCount
p181
I0
sVOwnerUin
p182
I0
sVMemberList
p183
g51
sVAlias
p184
g55
sVPYQuanPin
p185
Vdeci
p186
sVSignature
p187
VLove
p188
sVRemarkPYInitial
p189
VMXY
p190
sVContactFlag
p191
I3
sVUin
p192
I0
sVNickName
p193
V\u5730\u78c1
p194
sVAppAccountFlag
p195
I0
sVVerifyFlag
p196
I0
sVRemarkPYQuanPin
p197
Vmaxiaoyan
p198
sVHeadImgUrl
p199
V/cgi-bin/mmwebwx-bin/webwxgeticon?seq=683306059&username=@d4e79fee452d0f1d76ce38f65bf6941e8665658ace2a443367bb5e924e359d92&skey=@crypt_d5e09b21_f6d4eb8ff700a7cb445282cdd5f699d7
p200
sVKeyWord
p201
g55
sVProvince
p202
VMiranda
p203
sVPYInitial
p204
VDC
p205
sVRemarkName
p206
V\u9a6c\u5c0f\u71d5
p207
sVIsOwner
p208
I0
sVSex
p209
I2
sVStarFriend
p210
I0
sVHideInputBarFlag
p211
I0
sVChatRoomId
p212
I0
sVEncryChatRoomId
p213
g55
sVAttrStatus
p214
I196901
sVStatues
p215
I0
stp216
Rp217
I1
bag34
(g38
g39
(dp218
VUserName
p219
V@2bc6e1959840b2f17cc46a8e123b6e0f2cd179a26ecd55c7469efb9a22406248
p220
sVCity
p221
V\u94f6\u5ddd
p222
sVSnsFlag
p223
I17
sVDisplayName
p224
g55
sVUniFriend
p225
I0
sVMemberCount
p226
I0
sVOwnerUin
p227
I0
sVMemberList
p228
g51
sVAlias
p229
g55
sVPYQuanPin
p230
Vqingqingzijin
p231
sVSignature
p232
V\u6162\u6162\u3002\u3002\u3002\u5c31\u600e\u4e48\u4e86\u3002\u3002\u3002\u3002
p233
sVRemarkPYInitial
p234
VGZL
p235
sVContactFlag
p236
I3
sVUin
p237
I0
sVNickName
p238
V\u9752\u9752\u5b50\u887f
p239
sVAppAccountFlag
p240
I0
sVVerifyFlag
p241
I0
sVRemarkPYQuanPin
p242
Vgazhanglei
p243
sVHeadImgUrl
p244
V/cgi-bin/mmwebwx-bin/webwxgeticon?seq=683230568&username=@2bc6e1959840b2f17cc46a8e123b6e0f2cd179a26ecd55c7469efb9a22406248&skey=@crypt_d5e09b21_f6d4eb8ff700a7cb445282cdd5f699d7
p245
sVKeyWord
p246
g55
sVProvince
p247
V\u5b81\u590f
p248
sVPYInitial
p249
VQQZJ
p250
sVRemarkName
p251
V\u5c15\u5f20\u78ca
p252
sVIsOwner
p253
I0
sVSex
p254
I1
sVStarFriend
p255
I0
sVHideInputBarFlag
p256
I0
sVChatRoomId
p257
I0
sVEncryChatRoomId
p258
g55
sVAttrStatus
p259
I16912485
sVStatues
p260
I0
stp261
Rp262
I1
bag34
(g38
g39
(dp263
VUserName
p264
V@ccef4fb7cc4043a9deffa7ac71fa152c
p265
sVCity
p266
V\u54c8\u5c14\u6ee8
p267
sVSnsFlag
p268
I16
sVDisplayName
p269
g55
sVUniFriend
p270
I0
sVMemberCount
p271
I0
sVOwnerUin
p272
I0
sVMemberList
p273
g51
sVAlias
p274
g55
sVPYQuanPin
p275
Vliying
p276
sVSignature
p277
g55
sVRemarkPYInitial
p278
g55
sVContactFlag
p279
I1
sVUin
p280
I0
sVNickName
p281
V\u674e\u8d62
p282
sVAppAccountFlag
p283
I0
sVVerifyFlag
p284
I0
sVRemarkPYQuanPin
p285
g55
sVHeadImgUrl
p286
V/cgi-bin/mmwebwx-bin/webwxgeticon?seq=482677&username=@ccef4fb7cc4043a9deffa7ac71fa152c&skey=@crypt_d5e09b21_f6d4eb8ff700a7cb445282cdd5f699d7
p287
sVKeyWord
p288
Vliy
p289
sVProvince
p290
V\u9ed1\u9f99\u6c5f
p291
sVPYInitial
p292
VLY
p293
sVRemarkName
p294
g55
sVIsOwner
p295
I0
sVSex
p296
I1
sVStarFriend
p297
I0
sVHideInputBarFlag
p298
I0
sVChatRoomId
p299
I0
sVEncryChatRoomId
p300
g55
sVAttrStatus
p301
I187
sVStatues
p302
I0
stp303
Rp304
I1
bag34
(g38
g39
(dp305
VUserName
p306
V@e6b0ecf608d1950cbb3b0d4c7d4700d2
p307
sVCity
p308
V\u8346\u5dde
p309
sVSnsFlag
p310
I17
sVDisplayName
p311
g55
sVUniFriend
p312
I0
sVMemberCount
p313
I0
sVOwnerUin
p314
I0
sVMemberList
p315
g51
sVAlias
p316
g55
sVPYQuanPin
p317
VLee
p318
sVSignature
p319
V\u4ec0\u4e48\u9b3c
p320
sVRemarkPYInitial
p321
VWY
p322
sVContactFlag
p323
I1
sVUin
p324
I0
sVNickName
p325
VLee
p326
sVAppAccountFlag
p327
I0
sVVerifyFlag
p328
I0
sVRemarkPYQuanPin
p329
Vwoyue
p330
sVHeadImgUrl
p331
V/cgi-bin/mmwebwx-bin/webwxgeticon?seq=629927913&username=@e6b0ecf608d1950cbb3b0d4c7d4700d2&skey=@crypt_d5e09b21_f6d4eb8ff700a7cb445282cdd5f699d7
p332
sVKeyWord
p333
Vqq7
p334
sVProvince
p335
V\u6e56\u5317
p336
sVPYInitial
p337
VLEE
p338
sVRemarkName
p339
V\u6211\u6708
p340
sVIsOwner
p341
I0
sVSex
p342
I1
sVStarFriend
p343
I0
sVHideInputBarFlag
p344
I0
sVChatRoomId
p345
I0
sVEncryChatRoomId
p346
g55
sVAttrStatus
p347
I102435
sVStatues
p348
I0
stp349
Rp350
I1
bag34
(g38
g39
(dp351
VUserName
p352
V@a6bd7063acc01dfce809a87a0f20b84c5ee811c56fab1663fa0f1a0ad3337d09
p353
sVCity
p354
V\u94f6\u5ddd
p355
sVSnsFlag
p356
I17
sVDisplayName
p357
g55
sVUniFriend
p358
I0
sVMemberCount
p359
I0
sVOwnerUin
p360
I0
sVMemberList
p361
g51
sVAlias
p362
g55
sVPYQuanPin
p363
Vspanclassemojiemoji1f3adspan
p364
sVSignature
p365
V\u6211\u60f3\u4f60\u4e5f\u4e00\u5b9a\u4f1a\u660e\u767d   \u6211\u4eec\u62e5\u6709\u591a\u4e48\u5149\u660e\u7684\u672a\u6765......
p366
sVRemarkPYInitial
p367
VXL
p368
sVContactFlag
p369
I3
sVUin
p370
I0
sVNickName
p371
V\U0001f3ad
p372
sVAppAccountFlag
p373
I0
sVVerifyFlag
p374
I0
sVRemarkPYQuanPin
p375
Vxiaoli
p376
sVHeadImgUrl
p377
V/cgi-bin/mmwebwx-bin/webwxgeticon?seq=633693096&username=@a6bd7063acc01dfce809a87a0f20b84c5ee811c56fab1663fa0f1a0ad3337d09&skey=@crypt_d5e09b21_f6d4eb8ff700a7cb445282cdd5f699d7
p378
sVKeyWord
p379
g55
sVProvince
p380
V\u5b81\u590f
p381
sVPYInitial
p382
VSPANCLASSEMOJIEMOJI1F3ADSPAN
p383
sVRemarkName
p384
V\u5c0f\u4e3d
p385
sVIsOwner
p386
I0
sVSex
p387
I1
sVStarFriend
p388
I0
sVHideInputBarFlag
p389
I0
sVChatRoomId
p390
I0
sVEncryChatRoomId
p391
g55
sVAttrStatus
p392
I102439
sVStatues
p393
I0
stp394
Rp395
I1
bag34
(g38
g39
(dp396
VUserName
p397
V@112f21fc2689e908fe5c89aa4b1f8990f8a92df9ebee4f2cfccf249ade8f37ac
p398
sVCity
p399
g55
sVSnsFlag
p400
I17
sVDisplayName
p401
g55
sVUniFriend
p402
I0
sVMemberCount
p403
I0
sVOwnerUin
p404
I0
sVMemberList
p405
g51
sVAlias
p406
g55
sVPYQuanPin
p407
VNouser
p408
sVSignature
p409
g55
sVRemarkPYInitial
p410
VTZ
p411
sVContactFlag
p412
I8193
sVUin
p413
I0
sVNickName
p414
VNo user
p415
sVAppAccountFlag
p416
I0
sVVerifyFlag
p417
I0
sVRemarkPYQuanPin
p418
Vtuzi
p419
sVHeadImgUrl
p420
V/cgi-bin/mmwebwx-bin/webwxgeticon?seq=654196161&username=@112f21fc2689e908fe5c89aa4b1f8990f8a92df9ebee4f2cfccf249ade8f37ac&skey=@crypt_d5e09b21_f6d4eb8ff700a7cb445282cdd5f699d7
p421
sVKeyWord
p422
g55
sVProvince
p423
g55
sVPYInitial
p424
VNOUSER
p425
sVRemarkName
p426
V\u5154\u5b50
p427
sVIsOwner
p428
I0
sVSex
p429
I1
sVStarFriend
p430
I0
sVHideInputBarFlag
p431
I0
sVChatRoomId
p432
I0
sVEncryChatRoomId
p433
g55
sVAttrStatus
p434
I100663483
sVStatues
p435
I0
stp436
Rp437
I1
bag34
(g38
g39
(dp438
VUserName
p439
V@b34deed373bfb706952d9814a99b78ce
p440
sVCity
p441
V\u9752\u5c9b
p442
sVSnsFlag
p443
I17
sVDisplayName
p444
g55
sVUniFriend
p445
I0
sVMemberCount
p446
I0
sVOwnerUin
p447
I0
sVMemberList
p448
g51
sVAlias
p449
g55
sVPYQuanPin
p450
Vwomenrengweizhidaonatiansuokanjiangoudemingzi
p451
sVSignature
p452
VGod's in his heaven All's right with the world.\u795e\u65e0\u8fc7\u4eba\u4e3a\u4e4b
p453
sVRemarkPYInitial
p454
VH
p455
sVContactFlag
p456
I5
sVUin
p457
I0
sVNickName
p458
V\u6211\u4eec\u4ecd\u672a\u77e5\u9053\u90a3\u5929\u6240\u770b\u89c1\u72d7\u7684\u540d\u5b57\u3002
p459
sVAppAccountFlag
p460
I0
sVVerifyFlag
p461
I0
sVRemarkPYQuanPin
p462
Vhuang
p463
sVHeadImgUrl
p464
V/cgi-bin/mmwebwx-bin/webwxgeticon?seq=627468314&username=@b34deed373bfb706952d9814a99b78ce&skey=@crypt_d5e09b21_f6d4eb8ff700a7cb445282cdd5f699d7
p465
sVKeyWord
p466
Vhua
p467
sVProvince
p468
V\u5c71\u4e1c
p469
sVPYInitial
p470
VWMRWZDNTSKJGDMZ
p471
sVRemarkName
p472
V\u9ec4
p473
sVIsOwner
p474
I0
sVSex
p475
I1
sVStarFriend
p476
I0
sVHideInputBarFlag
p477
I0
sVChatRoomId
p478
I0
sVEncryChatRoomId
p479
g55
sVAttrStatus
p480
I111231
sVStatues
p481
I0
stp482
Rp483
I1
bag34
(g38
g39
(dp484
VUserName
p485
V@bd24878a3279e2656b2026244213bfe0a4d461185d365f928462b89c5663f01d
p486
sVCity
p487
V\u6e29\u5dde
p488
sVSnsFlag
p489
I16
sVDisplayName
p490
g55
sVUniFriend
p491
I0
sVMemberCount
p492
I0
sVOwnerUin
p493
I0
sVMemberList
p494
g51
sVAlias
p495
g55
sVPYQuanPin
p496
VJingBinCN
p497
sVSignature
p498
g55
sVRemarkPYInitial
p499
V13
p500
sVContactFlag
p501
I8193
sVUin
p502
I0
sVNickName
p503
VJingBinCN
p504
sVAppAccountFlag
p505
I0
sVVerifyFlag
p506
I0
sVRemarkPYQuanPin
p507
V13
p508
sVHeadImgUrl
p509
V/cgi-bin/mmwebwx-bin/webwxgeticon?seq=676073237&username=@bd24878a3279e2656b2026244213bfe0a4d461185d365f928462b89c5663f01d&skey=@crypt_d5e09b21_f6d4eb8ff700a7cb445282cdd5f699d7
p510
sVKeyWord
p511
g55
sVProvince
p512
V\u6d59\u6c5f
p513
sVPYInitial
p514
VJINGBINCN
p515
sVRemarkName
p516
V13
p517
sVIsOwner
p518
I0
sVSex
p519
I1
sVStarFriend
p520
I0
sVHideInputBarFlag
p521
I0
sVChatRoomId
p522
I0
sVEncryChatRoomId
p523
g55
sVAttrStatus
p524
I102501
sVStatues
p525
I0
stp526
Rp527
I1
bag34
(g38
g39
(dp528
VUserName
p529
V@de200c1b67bb26fd0818f6fee1b4828a
p530
sVCity
p531
V\u6210\u90fd
p532
sVSnsFlag
p533
I17
sVDisplayName
p534
g55
sVUniFriend
p535
I0
sVMemberCount
p536
I0
sVOwnerUin
p537
I0
sVMemberList
p538
g51
sVAlias
p539
g55
sVPYQuanPin
p540
VMRidontcare
p541
sVSignature
p542
V\u8ba9\u6715\u9759\u9759
p543
sVRemarkPYInitial
p544
VMW
p545
sVContactFlag
p546
I1
sVUin
p547
I0
sVNickName
p548
VMR.i don't care
p549
sVAppAccountFlag
p550
I0
sVVerifyFlag
p551
I0
sVRemarkPYQuanPin
p552
Vmaowang
p553
sVHeadImgUrl
p554
V/cgi-bin/mmwebwx-bin/webwxgeticon?seq=676073865&username=@de200c1b67bb26fd0818f6fee1b4828a&skey=@crypt_d5e09b21_f6d4eb8ff700a7cb445282cdd5f699d7
p555
sVKeyWord
p556
Vxi1
p557
sVProvince
p558
V\u56db\u5ddd
p559
sVPYInitial
p560
VMRIDONTCARE
p561
sVRemarkName
p562
V\u732b\u738b
p563
sVIsOwner
p564
I0
sVSex
p565
I1
sVStarFriend
p566
I0
sVHideInputBarFlag
p567
I0
sVChatRoomId
p568
I0
sVEncryChatRoomId
p569
g55
sVAttrStatus
p570
I98343
sVStatues
p571
I0
stp572
Rp573
I1
bag34
(g38
g39
(dp574
VUserName
p575
V@9d51823962dba1225ece46bb215bc5b8b7a52ca998074422cafcba04361ad6f1
p576
sVCity
p577
g55
sVSnsFlag
p578
I1
sVDisplayName
p579
g55
sVUniFriend
p580
I0
sVMemberCount
p581
I0
sVOwnerUin
p582
I0
sVMemberList
p583
g51
sVAlias
p584
g55
sVPYQuanPin
p585
Vhuayu
p586
sVSignature
p587
V\u8bbe\u7f6e
p588
sVRemarkPYInitial
p589
VDG
p590
sVContactFlag
p591
I1
sVUin
p592
I0
sVNickName
p593
V\u82b1\u96e8
p594
sVAppAccountFlag
p595
I0
sVVerifyFlag
p596
I0
sVRemarkPYQuanPin
p597
Vdagu
p598
sVHeadImgUrl
p599
V/cgi-bin/mmwebwx-bin/webwxgeticon?seq=676081402&username=@9d51823962dba1225ece46bb215bc5b8b7a52ca998074422cafcba04361ad6f1&skey=@crypt_d5e09b21_f6d4eb8ff700a7cb445282cdd5f699d7
p600
sVKeyWord
p601
g55
sVProvince
p602
g55
sVPYInitial
p603
VHY
p604
sVRemarkName
p605
V\u5927\u59d1
p606
sVIsOwner
p607
I0
sVSex
p608
I1
sVStarFriend
p609
I0
sVHideInputBarFlag
p610
I0
sVChatRoomId
p611
I0
sVEncryChatRoomId
p612
g55
sVAttrStatus
p613
I4133
sVStatues
p614
I0
stp615
Rp616
I1
bag34
(g38
g39
(dp617
VUserName
p618
V@2081549f49e7806b47e8771c3035ce222eb934ef5ecb7a4211c103877708774b
p619
sVCity
p620
V\u94f6\u5ddd
p621
sVSnsFlag
p622
I17
sVDisplayName
p623
g55
sVUniFriend
p624
I0
sVMemberCount
p625
I0
sVOwnerUin
p626
I0
sVMemberList
p627
g51
sVAlias
p628
g55
sVPYQuanPin
p629
Vpingpingdandan
p630
sVSignature
p631
V\u5bf9\u81ea\u5df1\u7b11\u4e00\u7b11\uff0c\u9633\u5149\u707f\u70c2\u2026\u2026
p632
sVRemarkPYInitial
p633
g55
sVContactFlag
p634
I1
sVUin
p635
I0
sVNickName
p636
V\u5e73\u5e73\u6de1\u6de1
p637
sVAppAccountFlag
p638
I0
sVVerifyFlag
p639
I0
sVRemarkPYQuanPin
p640
g55
sVHeadImgUrl
p641
V/cgi-bin/mmwebwx-bin/webwxgeticon?seq=663740&username=@2081549f49e7806b47e8771c3035ce222eb934ef5ecb7a4211c103877708774b&skey=@crypt_d5e09b21_f6d4eb8ff700a7cb445282cdd5f699d7
p642
sVKeyWord
p643
Vpin
p644
sVProvince
p645
V\u5b81\u590f
p646
sVPYInitial
p647
VPPDD
p648
sVRemarkName
p649
g55
sVIsOwner
p650
I0
sVSex
p651
I2
sVStarFriend
p652
I0
sVHideInputBarFlag
p653
I0
sVChatRoomId
p654
I0
sVEncryChatRoomId
p655
g55
sVAttrStatus
p656
I33559807
sVStatues
p657
I0
stp658
Rp659
I1
bag34
(g38
g39
(dp660
VUserName
p661
V@0ad8d18f5b535dfe24a673431b71ac0e
p662
sVCity
p663
g55
sVSnsFlag
p664
I17
sVDisplayName
p665
g55
sVUniFriend
p666
I0
sVMemberCount
p667
I0
sVOwnerUin
p668
I0
sVMemberList
p669
g51
sVAlias
p670
g55
sVPYQuanPin
p671
Vlongge
p672
sVSignature
p673
g55
sVRemarkPYInitial
p674
VLD
p675
sVContactFlag
p676
I1
sVUin
p677
I0
sVNickName
p678
V\u9f8d\u54e5
p679
sVAppAccountFlag
p680
I0
sVVerifyFlag
p681
I0
sVRemarkPYQuanPin
p682
Vlaodie
p683
sVHeadImgUrl
p684
V/cgi-bin/mmwebwx-bin/webwxgeticon?seq=631104106&username=@0ad8d18f5b535dfe24a673431b71ac0e&skey=@crypt_d5e09b21_f6d4eb8ff700a7cb445282cdd5f699d7
p685
sVKeyWord
p686
Vljq
p687
sVProvince
p688
g55
sVPYInitial
p689
VLG
p690
sVRemarkName
p691
V\u8001\u7239
p692
sVIsOwner
p693
I0
sVSex
p694
I1
sVStarFriend
p695
I0
sVHideInputBarFlag
p696
I0
sVChatRoomId
p697
I0
sVEncryChatRoomId
p698
g55
sVAttrStatus
p699
I33855
sVStatues
p700
I0
stp701
Rp702
I1
bag34
(g38
g39
(dp703
VUserName
p704
V@52b2e1f52096f27b41508787e6ddc360
p705
sVCity
p706
V\u6768\u6d66
p707
sVSnsFlag
p708
I49
sVDisplayName
p709
g55
sVUniFriend
p710
I0
sVMemberCount
p711
I0
sVOwnerUin
p712
I0
sVMemberList
p713
g51
sVAlias
p714
g55
sVPYQuanPin
p715
Venwawu
p716
sVSignature
p717
V\u5566\u5566\u5566\uff5e
p718
sVRemarkPYInitial
p719
g55
sVContactFlag
p720
I1
sVUin
p721
I0
sVNickName
p722
V\u5514\u54c7\u545c
p723
sVAppAccountFlag
p724
I0
sVVerifyFlag
p725
I0
sVRemarkPYQuanPin
p726
g55
sVHeadImgUrl
p727
V/cgi-bin/mmwebwx-bin/webwxgeticon?seq=638588179&username=@52b2e1f52096f27b41508787e6ddc360&skey=@crypt_d5e09b21_f6d4eb8ff700a7cb445282cdd5f699d7
p728
sVKeyWord
p729
Vdul
p730
sVProvince
p731
V\u4e0a\u6d77
p732
sVPYInitial
p733
VEWW
p734
sVRemarkName
p735
g55
sVIsOwner
p736
I0
sVSex
p737
I1
sVStarFriend
p738
I0
sVHideInputBarFlag
p739
I0
sVChatRoomId
p740
I0
sVEncryChatRoomId
p741
g55
sVAttrStatus
p742
I33674879
sVStatues
p743
I0
stp744
Rp745
I1
bag34
(g38
g39
(dp746
VUserName
p747
V@9a64533f0935ba6d2ac1264856844161
p748
sVCity
p749
V\u6c99\u7530\u533a
p750
sVSnsFlag
p751
I49
sVDisplayName
p752
g55
sVUniFriend
p753
I0
sVMemberCount
p754
I0
sVOwnerUin
p755
I0
sVMemberList
p756
g51
sVAlias
p757
g55
sVPYQuanPin
p758
Vxing
p759
sVSignature
p760
V\u7761\u9192\u7684\u4eba\u54ed\u7740\u60f3\u56de\u5bb6 \u53ef\u79bb\u5bb6\u7684\u4eba\u4e0d\u4f1a\u76f8\u4fe1\u4ed6
p761
sVRemarkPYInitial
p762
VX
p763
sVContactFlag
p764
I1
sVUin
p765
I0
sVNickName
p766
V\u661f''
p767
sVAppAccountFlag
p768
I0
sVVerifyFlag
p769
I0
sVRemarkPYQuanPin
p770
Vxing
p771
sVHeadImgUrl
p772
V/cgi-bin/mmwebwx-bin/webwxgeticon?seq=682116218&username=@9a64533f0935ba6d2ac1264856844161&skey=@crypt_d5e09b21_f6d4eb8ff700a7cb445282cdd5f699d7
p773
sVKeyWord
p774
Vxin
p775
sVProvince
p776
V\u9999\u6e2f
p777
sVPYInitial
p778
g763
sVRemarkName
p779
V\u661f\uff5e
p780
sVIsOwner
p781
I0
sVSex
p782
I2
sVStarFriend
p783
I0
sVHideInputBarFlag
p784
I0
sVChatRoomId
p785
I0
sVEncryChatRoomId
p786
g55
sVAttrStatus
p787
I4302887
sVStatues
p788
I0
stp789
Rp790
I1
bag34
(g38
g39
(dp791
VUserName
p792
V@46578e04b8620f5bbb951babe989e5b90399d403d5c2033ff64ff18f5e25abaf
p793
sVCity
p794
VToronto
p795
sVSnsFlag
p796
I1
sVDisplayName
p797
g55
sVUniFriend
p798
I0
sVMemberCount
p799
I0
sVOwnerUin
p800
I0
sVMemberList
p801
g51
sVAlias
p802
g55
sVPYQuanPin
p803
Vxiao?an?ni?
p804
sVSignature
p805
g55
sVRemarkPYInitial
p806
VJ
p807
sVContactFlag
p808
I1
sVUin
p809
I0
sVNickName
p810
V\u5c0f\ua671\u5b89\ua671\u59ae\ua671
p811
sVAppAccountFlag
p812
I0
sVVerifyFlag
p813
I0
sVRemarkPYQuanPin
p814
Vjuan
p815
sVHeadImgUrl
p816
V/cgi-bin/mmwebwx-bin/webwxgeticon?seq=682116623&username=@46578e04b8620f5bbb951babe989e5b90399d403d5c2033ff64ff18f5e25abaf&skey=@crypt_d5e09b21_f6d4eb8ff700a7cb445282cdd5f699d7
p817
sVKeyWord
p818
g55
sVProvince
p819
VOntario
p820
sVPYInitial
p821
VX?A?N?
p822
sVRemarkName
p823
V\u5377
p824
sVIsOwner
p825
I0
sVSex
p826
I2
sVStarFriend
p827
I0
sVHideInputBarFlag
p828
I0
sVChatRoomId
p829
I0
sVEncryChatRoomId
p830
g55
sVAttrStatus
p831
I236477
sVStatues
p832
I0
stp833
Rp834
I1
bag34
(g38
g39
(dp835
VUserName
p836
V@5625252cd3b18c93ba2e55d38fe26175
p837
sVCity
p838
V\u94f6\u5ddd
p839
sVSnsFlag
p840
I17
sVDisplayName
p841
g55
sVUniFriend
p842
I0
sVMemberCount
p843
I0
sVOwnerUin
p844
I0
sVMemberList
p845
g51
sVAlias
p846
g55
sVPYQuanPin
p847
Vjie
p848
sVSignature
p849
VFILNGOYPVMMBE
p850
sVRemarkPYInitial
p851
VDYJ
p852
sVContactFlag
p853
I1
sVUin
p854
I0
sVNickName
p855
V\u9889
p856
sVAppAccountFlag
p857
I0
sVVerifyFlag
p858
I0
sVRemarkPYQuanPin
p859
Vdongyajie
p860
sVHeadImgUrl
p861
V/cgi-bin/mmwebwx-bin/webwxgeticon?seq=676064280&username=@5625252cd3b18c93ba2e55d38fe26175&skey=@crypt_d5e09b21_f6d4eb8ff700a7cb445282cdd5f699d7
p862
sVKeyWord
p863
Vdyj
p864
sVProvince
p865
V\u5b81\u590f
p866
sVPYInitial
p867
g807
sVRemarkName
p868
V\u8463\u4e9a\u9889
p869
sVIsOwner
p870
I0
sVSex
p871
I1
sVStarFriend
p872
I0
sVHideInputBarFlag
p873
I0
sVChatRoomId
p874
I0
sVEncryChatRoomId
p875
g55
sVAttrStatus
p876
I507
sVStatues
p877
I0
stp878
Rp879
I1
bag34
(g38
g39
(dp880
VUserName
p881
V@98c852bf81b4c01fc2550b16dffac5cc
p882
sVCity
p883
V\u94f6\u5ddd
p884
sVSnsFlag
p885
I177
sVDisplayName
p886
g55
sVUniFriend
p887
I0
sVMemberCount
p888
I0
sVOwnerUin
p889
I0
sVMemberList
p890
g51
sVAlias
p891
g55
sVPYQuanPin
p892
Vkaopuqingnian
p893
sVSignature
p894
V\u4e0d\u79ef\u8dec\u6b65 \u65e0\u4ee5\u81f4\u5343\u91cc
p895
sVRemarkPYInitial
p896
VFG
p897
sVContactFlag
p898
I1
sVUin
p899
I0
sVNickName
p900
V\u9760\u8c31\u9752\u5e74
p901
sVAppAccountFlag
p902
I0
sVVerifyFlag
p903
I0
sVRemarkPYQuanPin
p904
Vfengge
p905
sVHeadImgUrl
p906
V/cgi-bin/mmwebwx-bin/webwxgeticon?seq=683226043&username=@98c852bf81b4c01fc2550b16dffac5cc&skey=@crypt_d5e09b21_f6d4eb8ff700a7cb445282cdd5f699d7
p907
sVKeyWord
p908
Vqq3
p909
sVProvince
p910
V\u5b81\u590f
p911
sVPYInitial
p912
VKPQN
p913
sVRemarkName
p914
V\u950b\u54e5
p915
sVIsOwner
p916
I0
sVSex
p917
I1
sVStarFriend
p918
I0
sVHideInputBarFlag
p919
I0
sVChatRoomId
p920
I0
sVEncryChatRoomId
p921
g55
sVAttrStatus
p922
I112743
sVStatues
p923
I0
stp924
Rp925
I1
bag34
(g38
g39
(dp926
VUserName
p927
V@7ae36bb08f7f44190a458fb862560a59
p928
sVCity
p929
V\u9752\u5c9b
p930
sVSnsFlag
p931
I17
sVDisplayName
p932
g55
sVUniFriend
p933
I0
sVMemberCount
p934
I0
sVOwnerUin
p935
I0
sVMemberList
p936
g51
sVAlias
p937
g55
sVPYQuanPin
p938
Vpujunxiong
p939
sVSignature
p940
V\u6211\u5728\u4f60\u8eab\u8fb9\uff0c\uff0c\uff0c\u4f60\u5374\u5728\u73a9\u624b\u673a\u3002\u3002\uff08\u6ca1\u624b\u673a\u4f60\u8fd8\u8fc7\u9ebd\uff0c\uff0c\uff0c\uff09
p941
sVRemarkPYInitial
p942
g55
sVContactFlag
p943
I1
sVUin
p944
I0
sVNickName
p945
V\u666e\u4fca\u96c4
p946
sVAppAccountFlag
p947
I0
sVVerifyFlag
p948
I0
sVRemarkPYQuanPin
p949
g55
sVHeadImgUrl
p950
V/cgi-bin/mmwebwx-bin/webwxgeticon?seq=683229257&username=@7ae36bb08f7f44190a458fb862560a59&skey=@crypt_d5e09b21_f6d4eb8ff700a7cb445282cdd5f699d7
p951
sVKeyWord
p952
Vsho
p953
sVProvince
p954
V\u5c71\u4e1c
p955
sVPYInitial
p956
VPJX
p957
sVRemarkName
p958
g55
sVIsOwner
p959
I0
sVSex
p960
I1
sVStarFriend
p961
I0
sVHideInputBarFlag
p962
I0
sVChatRoomId
p963
I0
sVEncryChatRoomId
p964
g55
sVAttrStatus
p965
I16777639
sVStatues
p966
I0
stp967
Rp968
I1
bag34
(g38
g39
(dp969
VUserName
p970
V@7af1761b9fb896c30ba324b896ab8e08b9c110848249819c0da5f4ce8bf2c9d2
p971
sVCity
p972
g55
sVSnsFlag
p973
I17
sVDisplayName
p974
g55
sVUniFriend
p975
I0
sVMemberCount
p976
I0
sVOwnerUin
p977
I0
sVMemberList
p978
g51
sVAlias
p979
g55
sVPYQuanPin
p980
VInNerphych
p981
sVSignature
p982
V\u672c\u53ef\u4ee5\u5fcd\u53d7\u9ed1\u6697
p983
sVRemarkPYInitial
p984
VSZJ
p985
sVContactFlag
p986
I5
sVUin
p987
I0
sVNickName
p988
VInNerphych
p989
sVAppAccountFlag
p990
I0
sVVerifyFlag
p991
I0
sVRemarkPYQuanPin
p992
Vsuozijian
p993
sVHeadImgUrl
p994
V/cgi-bin/mmwebwx-bin/webwxgeticon?seq=636120779&username=@7af1761b9fb896c30ba324b896ab8e08b9c110848249819c0da5f4ce8bf2c9d2&skey=@crypt_d5e09b21_f6d4eb8ff700a7cb445282cdd5f699d7
p995
sVKeyWord
p996
VSto
p997
sVProvince
p998
g55
sVPYInitial
p999
VINNERPHYCH
p1000
sVRemarkName
p1001
V\u7410\u5b50\u5065
p1002
sVIsOwner
p1003
I0
sVSex
p1004
I1
sVStarFriend
p1005
I0
sVHideInputBarFlag
p1006
I0
sVChatRoomId
p1007
I0
sVEncryChatRoomId
p1008
g55
sVAttrStatus
p1009
I33684839
sVStatues
p1010
I0
stp1011
Rp1012
I1
bag34
(g38
g39
(dp1013
VUserName
p1014
V@7dc39c9da58807093cf106456f819d84fa6319ac85c190016a62f80adf0d7932
p1015
sVCity
p1016
V\u94f6\u5ddd
p1017
sVSnsFlag
p1018
I17
sVDisplayName
p1019
g55
sVUniFriend
p1020
I0
sVMemberCount
p1021
I0
sVOwnerUin
p1022
I0
sVMemberList
p1023
g51
sVAlias
p1024
g55
sVPYQuanPin
p1025
Vspanclassemojiemoji1f419span
p1026
sVSignature
p1027
V\u79bb\u5f00\u4f60\uff0c\u4e5f\u8bb8\u73b0\u5728\u5c31\u662f\u5728\u5408\u9002\u4e0d\u8fc7\u7684\u4e86\u3002\u3002\u3002
p1028
sVRemarkPYInitial
p1029
g55
sVContactFlag
p1030
I32771
sVUin
p1031
I0
sVNickName
p1032
V\U0001f419
p1033
sVAppAccountFlag
p1034
I0
sVVerifyFlag
p1035
I0
sVRemarkPYQuanPin
p1036
g55
sVHeadImgUrl
p1037
V/cgi-bin/mmwebwx-bin/webwxgeticon?seq=683236581&username=@7dc39c9da58807093cf106456f819d84fa6319ac85c190016a62f80adf0d7932&skey=@crypt_d5e09b21_f6d4eb8ff700a7cb445282cdd5f699d7
p1038
sVKeyWord
p1039
g55
sVProvince
p1040
V\u5b81\u590f
p1041
sVPYInitial
p1042
VSPANCLASSEMOJIEMOJI1F419SPAN
p1043
sVRemarkName
p1044
g55
sVIsOwner
p1045
I0
sVSex
p1046
I2
sVStarFriend
p1047
I0
sVHideInputBarFlag
p1048
I0
sVChatRoomId
p1049
I0
sVEncryChatRoomId
p1050
g55
sVAttrStatus
p1051
I4133
sVStatues
p1052
I0
stp1053
Rp1054
I1
bag34
(g38
g39
(dp1055
VUserName
p1056
V@3f712ce90fe0965ffdbe6f5e18b6be67
p1057
sVCity
p1058
V\u94f6\u5ddd
p1059
sVSnsFlag
p1060
I49
sVDisplayName
p1061
g55
sVUniFriend
p1062
I0
sVMemberCount
p1063
I0
sVOwnerUin
p1064
I0
sVMemberList
p1065
g51
sVAlias
p1066
g55
sVPYQuanPin
p1067
VLiuXK
p1068
sVSignature
p1069
g55
sVRemarkPYInitial
p1070
VLXK
p1071
sVContactFlag
p1072
I3
sVUin
p1073
I0
sVNickName
p1074
VLiu XK
p1075
sVAppAccountFlag
p1076
I0
sVVerifyFlag
p1077
I0
sVRemarkPYQuanPin
p1078
Vliuxiaoke
p1079
sVHeadImgUrl
p1080
V/cgi-bin/mmwebwx-bin/webwxgeticon?seq=683242573&username=@3f712ce90fe0965ffdbe6f5e18b6be67&skey=@crypt_d5e09b21_f6d4eb8ff700a7cb445282cdd5f699d7
p1081
sVKeyWord
p1082
Vkjd
p1083
sVProvince
p1084
V\u5b81\u590f
p1085
sVPYInitial
p1086
VLIUXK
p1087
sVRemarkName
p1088
V\u5218\u5c0f\u53ef
p1089
sVIsOwner
p1090
I0
sVSex
p1091
I1
sVStarFriend
p1092
I0
sVHideInputBarFlag
p1093
I0
sVChatRoomId
p1094
I0
sVEncryChatRoomId
p1095
g55
sVAttrStatus
p1096
I235943
sVStatues
p1097
I0
stp1098
Rp1099
I1
bag34
(g38
g39
(dp1100
VUserName
p1101
V@d5e5dfb5ad35a76fb71f9a4aaec13bd9d07053e2e1a689a8d6e31678b394caaf
p1102
sVCity
p1103
g55
sVSnsFlag
p1104
I49
sVDisplayName
p1105
g55
sVUniFriend
p1106
I0
sVMemberCount
p1107
I0
sVOwnerUin
p1108
I0
sVMemberList
p1109
g51
sVAlias
p1110
g55
sVPYQuanPin
p1111
VKoori
p1112
sVSignature
p1113
g55
sVRemarkPYInitial
p1114
VICE
p1115
sVContactFlag
p1116
I1
sVUin
p1117
I0
sVNickName
p1118
VKoori
p1119
sVAppAccountFlag
p1120
I0
sVVerifyFlag
p1121
I0
sVRemarkPYQuanPin
p1122
Vice
p1123
sVHeadImgUrl
p1124
V/cgi-bin/mmwebwx-bin/webwxgeticon?seq=638589122&username=@d5e5dfb5ad35a76fb71f9a4aaec13bd9d07053e2e1a689a8d6e31678b394caaf&skey=@crypt_d5e09b21_f6d4eb8ff700a7cb445282cdd5f699d7
p1125
sVKeyWord
p1126
g55
sVProvince
p1127
g55
sVPYInitial
p1128
VKOORI
p1129
sVRemarkName
p1130
Vice
p1131
sVIsOwner
p1132
I0
sVSex
p1133
I1
sVStarFriend
p1134
I0
sVHideInputBarFlag
p1135
I0
sVChatRoomId
p1136
I0
sVEncryChatRoomId
p1137
g55
sVAttrStatus
p1138
I229413
sVStatues
p1139
I0
stp1140
Rp1141
I1
bag34
(g38
g39
(dp1142
VUserName
p1143
V@424c945f5cc667334294a59ba7fd09fe0a6851b9ee714c9dbc0ede9775cfcde5
p1144
sVCity
p1145
V\u9547\u6c5f
p1146
sVSnsFlag
p1147
I17
sVDisplayName
p1148
g55
sVUniFriend
p1149
I0
sVMemberCount
p1150
I0
sVOwnerUin
p1151
I0
sVMemberList
p1152
g51
sVAlias
p1153
g55
sVPYQuanPin
p1154
Vqiyuespanclassemojiemoji2747span
p1155
sVSignature
p1156
VIn solitude,be a multitude to yourself.
p1157
sVRemarkPYInitial
p1158
VZW
p1159
sVContactFlag
p1160
I3
sVUin
p1161
I0
sVNickName
p1162
V\u67d2\u73a5 \u2747
p1163
sVAppAccountFlag
p1164
I0
sVVerifyFlag
p1165
I0
sVRemarkPYQuanPin
p1166
Vzhangwei
p1167
sVHeadImgUrl
p1168
V/cgi-bin/mmwebwx-bin/webwxgeticon?seq=683244676&username=@424c945f5cc667334294a59ba7fd09fe0a6851b9ee714c9dbc0ede9775cfcde5&skey=@crypt_d5e09b21_f6d4eb8ff700a7cb445282cdd5f699d7
p1169
sVKeyWord
p1170
g55
sVProvince
p1171
V\u6c5f\u82cf
p1172
sVPYInitial
p1173
VQYSPANCLASSEMOJIEMOJI2747SPAN
p1174
sVRemarkName
p1175
V\u5f20\u8587
p1176
sVIsOwner
p1177
I0
sVSex
p1178
I2
sVStarFriend
p1179
I0
sVHideInputBarFlag
p1180
I0
sVChatRoomId
p1181
I0
sVEncryChatRoomId
p1182
g55
sVAttrStatus
p1183
I233573
sVStatues
p1184
I0
stp1185
Rp1186
I1
bag34
(g38
g39
(dp1187
VUserName
p1188
V@9cb717bb7ca00aa92de03196d105c133
p1189
sVCity
p1190
V\u957f\u6c99
p1191
sVSnsFlag
p1192
I17
sVDisplayName
p1193
g55
sVUniFriend
p1194
I0
sVMemberCount
p1195
I0
sVOwnerUin
p1196
I0
sVMemberList
p1197
g51
sVAlias
p1198
g55
sVPYQuanPin
p1199
Vyu
p1200
sVSignature
p1201
V\u5b88\u5f97\u4f4f\u81ea\u5df1
p1202
sVRemarkPYInitial
p1203
VCS
p1204
sVContactFlag
p1205
I1
sVUin
p1206
I0
sVNickName
p1207
V\u4e88\u3002
p1208
sVAppAccountFlag
p1209
I0
sVVerifyFlag
p1210
I0
sVRemarkPYQuanPin
p1211
Vcaoshu
p1212
sVHeadImgUrl
p1213
V/cgi-bin/mmwebwx-bin/webwxgeticon?seq=682118647&username=@9cb717bb7ca00aa92de03196d105c133&skey=@crypt_d5e09b21_f6d4eb8ff700a7cb445282cdd5f699d7
p1214
sVKeyWord
p1215
Vcao
p1216
sVProvince
p1217
V\u6e56\u5357
p1218
sVPYInitial
p1219
VY
p1220
sVRemarkName
p1221
V\u66f9\u8212
p1222
sVIsOwner
p1223
I0
sVSex
p1224
I2
sVStarFriend
p1225
I0
sVHideInputBarFlag
p1226
I0
sVChatRoomId
p1227
I0
sVEncryChatRoomId
p1228
g55
sVAttrStatus
p1229
I204391
sVStatues
p1230
I0
stp1231
Rp1232
I1
bag34
(g38
g39
(dp1233
VUserName
p1234
V@c746cb1758dc850440a24febcc73f4b93a6adb1c92e8d1fc665334ed504df480
p1235
sVCity
p1236
V\u94f6\u5ddd
p1237
sVSnsFlag
p1238
I49
sVDisplayName
p1239
g55
sVUniFriend
p1240
I0
sVMemberCount
p1241
I0
sVOwnerUin
p1242
I0
sVMemberList
p1243
g51
sVAlias
p1244
g55
sVPYQuanPin
p1245
Vyangli
p1246
sVSignature
p1247
V \u4eca\u5929\u662f\u7236\u4eb2\u8282\uff0c\u795d\u613f\u7238\u7238\u5de5\u4f5c\u987a\u5229\uff0c\u8eab\u4f53\u5065\u5eb7\uff01
p1248
sVRemarkPYInitial
p1249
g55
sVContactFlag
p1250
I32771
sVUin
p1251
I0
sVNickName
p1252
V\u6768\u4e3d
p1253
sVAppAccountFlag
p1254
I0
sVVerifyFlag
p1255
I0
sVRemarkPYQuanPin
p1256
g55
sVHeadImgUrl
p1257
V/cgi-bin/mmwebwx-bin/webwxgeticon?seq=683241687&username=@c746cb1758dc850440a24febcc73f4b93a6adb1c92e8d1fc665334ed504df480&skey=@crypt_d5e09b21_f6d4eb8ff700a7cb445282cdd5f699d7
p1258
sVKeyWord
p1259
g55
sVProvince
p1260
V\u5b81\u590f
p1261
sVPYInitial
p1262
VYL
p1263
sVRemarkName
p1264
g55
sVIsOwner
p1265
I0
sVSex
p1266
I2
sVStarFriend
p1267
I0
sVHideInputBarFlag
p1268
I0
sVChatRoomId
p1269
I0
sVEncryChatRoomId
p1270
g55
sVAttrStatus
p1271
I102525
sVStatues
p1272
I0
stp1273
Rp1274
I1
bag34
(g38
g39
(dp1275
VUserName
p1276
V@796e513dc56334a328536a95648d62b1e9e498270a4997d28067a9ec9c0feba2
p1277
sVCity
p1278
V\u94f6\u5ddd
p1279
sVSnsFlag
p1280
I17
sVDisplayName
p1281
g55
sVUniFriend
p1282
I0
sVMemberCount
p1283
I0
sVOwnerUin
p1284
I0
sVMemberList
p1285
g51
sVAlias
p1286
g55
sVPYQuanPin
p1287
Valiang
p1288
sVSignature
p1289
V\u5b8c\u5584\u81ea\u6211
p1290
sVRemarkPYInitial
p1291
VJL
p1292
sVContactFlag
p1293
I1
sVUin
p1294
I0
sVNickName
p1295
V\u963f\u4eae
p1296
sVAppAccountFlag
p1297
I0
sVVerifyFlag
p1298
I0
sVRemarkPYQuanPin
p1299
Vjialiang
p1300
sVHeadImgUrl
p1301
V/cgi-bin/mmwebwx-bin/webwxgeticon?seq=636552679&username=@796e513dc56334a328536a95648d62b1e9e498270a4997d28067a9ec9c0feba2&skey=@crypt_d5e09b21_f6d4eb8ff700a7cb445282cdd5f699d7
p1302
sVKeyWord
p1303
g55
sVProvince
p1304
V\u5b81\u590f
p1305
sVPYInitial
p1306
VAL
p1307
sVRemarkName
p1308
V\u5609\u4eae
p1309
sVIsOwner
p1310
I0
sVSex
p1311
I1
sVStarFriend
p1312
I0
sVHideInputBarFlag
p1313
I0
sVChatRoomId
p1314
I0
sVEncryChatRoomId
p1315
g55
sVAttrStatus
p1316
I4133
sVStatues
p1317
I0
stp1318
Rp1319
I1
bag34
(g38
g39
(dp1320
VUserName
p1321
V@0823c9f7bd46d9c3267219d80952a6d0
p1322
sVCity
p1323
V\u94f6\u5ddd
p1324
sVSnsFlag
p1325
I177
sVDisplayName
p1326
g55
sVUniFriend
p1327
I0
sVMemberCount
p1328
I0
sVOwnerUin
p1329
I0
sVMemberList
p1330
g51
sVAlias
p1331
g55
sVPYQuanPin
p1332
Vguojun
p1333
sVSignature
p1334
g55
sVRemarkPYInitial
p1335
VTZ
p1336
sVContactFlag
p1337
I3
sVUin
p1338
I0
sVNickName
p1339
V\u56fd\u519b
p1340
sVAppAccountFlag
p1341
I0
sVVerifyFlag
p1342
I0
sVRemarkPYQuanPin
p1343
Vtangzong
p1344
sVHeadImgUrl
p1345
V/cgi-bin/mmwebwx-bin/webwxgeticon?seq=683259529&username=@0823c9f7bd46d9c3267219d80952a6d0&skey=@crypt_d5e09b21_f6d4eb8ff700a7cb445282cdd5f699d7
p1346
sVKeyWord
p1347
Vfor
p1348
sVProvince
p1349
V\u5b81\u590f
p1350
sVPYInitial
p1351
VGJ
p1352
sVRemarkName
p1353
V\u6c64\u603b
p1354
sVIsOwner
p1355
I0
sVSex
p1356
I1
sVStarFriend
p1357
I0
sVHideInputBarFlag
p1358
I0
sVChatRoomId
p1359
I0
sVEncryChatRoomId
p1360
g55
sVAttrStatus
p1361
I102975
sVStatues
p1362
I0
stp1363
Rp1364
I1
bag34
(g38
g39
(dp1365
VUserName
p1366
V@37fa7924881b9e084444f3ef89bdbabd
p1367
sVCity
p1368
V\u94f6\u5ddd
p1369
sVSnsFlag
p1370
I17
sVDisplayName
p1371
g55
sVUniFriend
p1372
I0
sVMemberCount
p1373
I0
sVOwnerUin
p1374
I0
sVMemberList
p1375
g51
sVAlias
p1376
g55
sVPYQuanPin
p1377
g55
sVSignature
p1378
V\u3002\u3002\u3002<span class="emoji emoji1f43d"></span>\u3002\u3002\u3002
p1379
sVRemarkPYInitial
p1380
VDY
p1381
sVContactFlag
p1382
I1
sVUin
p1383
I0
sVNickName
p1384
V\u3002\u3002\u3002
p1385
sVAppAccountFlag
p1386
I0
sVVerifyFlag
p1387
I0
sVRemarkPYQuanPin
p1388
Vdongyan
p1389
sVHeadImgUrl
p1390
V/cgi-bin/mmwebwx-bin/webwxgeticon?seq=683231155&username=@37fa7924881b9e084444f3ef89bdbabd&skey=@crypt_d5e09b21_f6d4eb8ff700a7cb445282cdd5f699d7
p1391
sVKeyWord
p1392
Vdon
p1393
sVProvince
p1394
V\u5b81\u590f
p1395
sVPYInitial
p1396
g55
sVRemarkName
p1397
V\u8463\u71d5
p1398
sVIsOwner
p1399
I0
sVSex
p1400
I2
sVStarFriend
p1401
I0
sVHideInputBarFlag
p1402
I0
sVChatRoomId
p1403
I0
sVEncryChatRoomId
p1404
g55
sVAttrStatus
p1405
I99005
sVStatues
p1406
I0
stp1407
Rp1408
I1
bag34
(g38
g39
(dp1409
VUserName
p1410
V@58eab3ecf6276a6731564699e8d435f35809c07e7f505029097a2b293e361de6
p1411
sVCity
p1412
V\u9526\u5dde
p1413
sVSnsFlag
p1414
I17
sVDisplayName
p1415
g55
sVUniFriend
p1416
I0
sVMemberCount
p1417
I0
sVOwnerUin
p1418
I0
sVMemberList
p1419
g51
sVAlias
p1420
g55
sVPYQuanPin
p1421
Vxiaoxiao
p1422
sVSignature
p1423
V\u4e0d\u671f\u800c\u9047\uff0c\u987a\u5176\u81ea\u7136
p1424
sVRemarkPYInitial
p1425
VCX
p1426
sVContactFlag
p1427
I3
sVUin
p1428
I0
sVNickName
p1429
V\u7b71\u7b71
p1430
sVAppAccountFlag
p1431
I0
sVVerifyFlag
p1432
I0
sVRemarkPYQuanPin
p1433
Vchenxiao
p1434
sVHeadImgUrl
p1435
V/cgi-bin/mmwebwx-bin/webwxgeticon?seq=683244731&username=@58eab3ecf6276a6731564699e8d435f35809c07e7f505029097a2b293e361de6&skey=@crypt_d5e09b21_f6d4eb8ff700a7cb445282cdd5f699d7
p1436
sVKeyWord
p1437
g55
sVProvince
p1438
V\u8fbd\u5b81
p1439
sVPYInitial
p1440
VXX
p1441
sVRemarkName
p1442
V\u9648\u7b71
p1443
sVIsOwner
p1444
I0
sVSex
p1445
I2
sVStarFriend
p1446
I0
sVHideInputBarFlag
p1447
I0
sVChatRoomId
p1448
I0
sVEncryChatRoomId
p1449
g55
sVAttrStatus
p1450
I103421
sVStatues
p1451
I0
stp1452
Rp1453
I1
bag34
(g38
g39
(dp1454
VUserName
p1455
V@6aa8ab50e7cd6492fc68eb29f3c4ebf5
p1456
sVCity
p1457
V\u60e0\u5dde
p1458
sVSnsFlag
p1459
I49
sVDisplayName
p1460
g55
sVUniFriend
p1461
I0
sVMemberCount
p1462
I0
sVOwnerUin
p1463
I0
sVMemberList
p1464
g51
sVAlias
p1465
g55
sVPYQuanPin
p1466
V5spanclassemojiemoji1f340span
p1467
sVSignature
p1468
VXLZ  Tony
p1469
sVRemarkPYInitial
p1470
VMA
p1471
sVContactFlag
p1472
I1
sVUin
p1473
I0
sVNickName
p1474
V5.\U0001f340
p1475
sVAppAccountFlag
p1476
I0
sVVerifyFlag
p1477
I0
sVRemarkPYQuanPin
p1478
Vma
p1479
sVHeadImgUrl
p1480
V/cgi-bin/mmwebwx-bin/webwxgeticon?seq=682111039&username=@6aa8ab50e7cd6492fc68eb29f3c4ebf5&skey=@crypt_d5e09b21_f6d4eb8ff700a7cb445282cdd5f699d7
p1481
sVKeyWord
p1482
Va31
p1483
sVProvince
p1484
V\u5e7f\u4e1c
p1485
sVPYInitial
p1486
V5SPANCLASSEMOJIEMOJI1F340SPAN
p1487
sVRemarkName
p1488
Vma
p1489
sVIsOwner
p1490
I0
sVSex
p1491
I1
sVStarFriend
p1492
I0
sVHideInputBarFlag
p1493
I0
sVChatRoomId
p1494
I0
sVEncryChatRoomId
p1495
g55
sVAttrStatus
p1496
I98405
sVStatues
p1497
I0
stp1498
Rp1499
I1
bag34
(g38
g39
(dp1500
VUserName
p1501
V@32676948fb29e7d14dcacad495c31f79
p1502
sVCity
p1503
V\u94f6\u5ddd
p1504
sVSnsFlag
p1505
I17
sVDisplayName
p1506
g55
sVUniFriend
p1507
I0
sVMemberCount
p1508
I0
sVOwnerUin
p1509
I0
sVMemberList
p1510
g51
sVAlias
p1511
g55
sVPYQuanPin
p1512
VLRC
p1513
sVSignature
p1514
V\u4f60\u662f\u732a\uff0c\u6211\u77e5\u9053\uff0c\u4e0d\u7528\u89e3\u91ca\uff01
p1515
sVRemarkPYInitial
p1516
VLRC
p1517
sVContactFlag
p1518
I3
sVUin
p1519
I0
sVNickName
p1520
VLRC
p1521
sVAppAccountFlag
p1522
I0
sVVerifyFlag
p1523
I0
sVRemarkPYQuanPin
p1524
Vliruichen
p1525
sVHeadImgUrl
p1526
V/cgi-bin/mmwebwx-bin/webwxgeticon?seq=683238471&username=@32676948fb29e7d14dcacad495c31f79&skey=@crypt_d5e09b21_f6d4eb8ff700a7cb445282cdd5f699d7
p1527
sVKeyWord
p1528
Vrui
p1529
sVProvince
p1530
V\u5b81\u590f
p1531
sVPYInitial
p1532
VLRC
p1533
sVRemarkName
p1534
V\u674e\u745e\u741b
p1535
sVIsOwner
p1536
I0
sVSex
p1537
I1
sVStarFriend
p1538
I0
sVHideInputBarFlag
p1539
I0
sVChatRoomId
p1540
I0
sVEncryChatRoomId
p1541
g55
sVAttrStatus
p1542
I242087
sVStatues
p1543
I0
stp1544
Rp1545
I1
bag34
(g38
g39
(dp1546
VUserName
p1547
V@b5bfd3dd0edc3fc2f0251821af51c72d
p1548
sVCity
p1549
V\u94f6\u5ddd
p1550
sVSnsFlag
p1551
I17
sVDisplayName
p1552
g55
sVUniFriend
p1553
I0
sVMemberCount
p1554
I0
sVOwnerUin
p1555
I0
sVMemberList
p1556
g51
sVAlias
p1557
g55
sVPYQuanPin
p1558
VMrGpie
p1559
sVSignature
p1560
V\u7ed9\u81ea\u5df1\u4e00\u4e2a\u76ee\u6807\uff01
p1561
sVRemarkPYInitial
p1562
VGB
p1563
sVContactFlag
p1564
I5
sVUin
p1565
I0
sVNickName
p1566
VMr.G \u2121\u4e3f
p1567
sVAppAccountFlag
p1568
I0
sVVerifyFlag
p1569
I0
sVRemarkPYQuanPin
p1570
VgouB
p1571
sVHeadImgUrl
p1572
V/cgi-bin/mmwebwx-bin/webwxgeticon?seq=683267471&username=@b5bfd3dd0edc3fc2f0251821af51c72d&skey=@crypt_d5e09b21_f6d4eb8ff700a7cb445282cdd5f699d7
p1573
sVKeyWord
p1574
Vgr4
p1575
sVProvince
p1576
V\u5b81\u590f
p1577
sVPYInitial
p1578
VMRGP
p1579
sVRemarkName
p1580
V\u72d7B
p1581
sVIsOwner
p1582
I0
sVSex
p1583
I1
sVStarFriend
p1584
I0
sVHideInputBarFlag
p1585
I0
sVChatRoomId
p1586
I0
sVEncryChatRoomId
p1587
g55
sVAttrStatus
p1588
I110695
sVStatues
p1589
I0
stp1590
Rp1591
I1
bag34
(g38
g39
(dp1592
VUserName
p1593
V@818a725d431264c710ba3326952ecf99
p1594
sVCity
p1595
V\u6c88\u9633
p1596
sVSnsFlag
p1597
I17
sVDisplayName
p1598
g55
sVUniFriend
p1599
I0
sVMemberCount
p1600
I0
sVOwnerUin
p1601
I0
sVMemberList
p1602
g51
sVAlias
p1603
g55
sVPYQuanPin
p1604
Vouyu
p1605
sVSignature
p1606
V\u4f60\u4e0d\u61c2\u6211\u4f24\u6709\u591a\u6df1
p1607
sVRemarkPYInitial
p1608
VXL
p1609
sVContactFlag
p1610
I1
sVUin
p1611
I0
sVNickName
p1612
V\u5076\u9047\u3002
p1613
sVAppAccountFlag
p1614
I0
sVVerifyFlag
p1615
I0
sVRemarkPYQuanPin
p1616
Vxiaoliang
p1617
sVHeadImgUrl
p1618
V/cgi-bin/mmwebwx-bin/webwxgeticon?seq=654164612&username=@818a725d431264c710ba3326952ecf99&skey=@crypt_d5e09b21_f6d4eb8ff700a7cb445282cdd5f699d7
p1619
sVKeyWord
p1620
Vqwe
p1621
sVProvince
p1622
V\u8fbd\u5b81
p1623
sVPYInitial
p1624
VOY
p1625
sVRemarkName
p1626
V\u5c0f\u4eae
p1627
sVIsOwner
p1628
I0
sVSex
p1629
I1
sVStarFriend
p1630
I0
sVHideInputBarFlag
p1631
I0
sVChatRoomId
p1632
I0
sVEncryChatRoomId
p1633
g55
sVAttrStatus
p1634
I241767
sVStatues
p1635
I0
stp1636
Rp1637
I1
bag34
(g38
g39
(dp1638
VUserName
p1639
V@a87b6dd8149446d5adcd94a55f8f76e8
p1640
sVCity
p1641
V\u9ec4\u6d66
p1642
sVSnsFlag
p1643
I49
sVDisplayName
p1644
g55
sVUniFriend
p1645
I0
sVMemberCount
p1646
I0
sVOwnerUin
p1647
I0
sVMemberList
p1648
g51
sVAlias
p1649
g55
sVPYQuanPin
p1650
Vlijiaming
p1651
sVSignature
p1652
VFlipped with \u840c\u840c,completely.
p1653
sVRemarkPYInitial
p1654
VLJM
p1655
sVContactFlag
p1656
I1
sVUin
p1657
I0
sVNickName
p1658
V\u674e\u5609\u94ed
p1659
sVAppAccountFlag
p1660
I0
sVVerifyFlag
p1661
I0
sVRemarkPYQuanPin
p1662
Vlijiaming
p1663
sVHeadImgUrl
p1664
V/cgi-bin/mmwebwx-bin/webwxgeticon?seq=683269069&username=@a87b6dd8149446d5adcd94a55f8f76e8&skey=@crypt_d5e09b21_f6d4eb8ff700a7cb445282cdd5f699d7
p1665
sVKeyWord
p1666
Va44
p1667
sVProvince
p1668
V\u4e0a\u6d77
p1669
sVPYInitial
p1670
VLJM
p1671
sVRemarkName
p1672
V\u674e\u5609\u94ed
p1673
sVIsOwner
p1674
I0
sVSex
p1675
I1
sVStarFriend
p1676
I0
sVHideInputBarFlag
p1677
I0
sVChatRoomId
p1678
I0
sVEncryChatRoomId
p1679
g55
sVAttrStatus
p1680
I101799
sVStatues
p1681
I0
stp1682
Rp1683
I1
bag34
(g38
g39
(dp1684
VUserName
p1685
V@d0bd5d0a76d00fa5b4ab906a845051da
p1686
sVCity
p1687
V\u94f6\u5ddd
p1688
sVSnsFlag
p1689
I49
sVDisplayName
p1690
g55
sVUniFriend
p1691
I0
sVMemberCount
p1692
I0
sVOwnerUin
p1693
I0
sVMemberList
p1694
g51
sVAlias
p1695
g55
sVPYQuanPin
p1696
Vxiang
p1697
sVSignature
p1698
V\u554a\u6211\u597d\u559c\u6b22\u4f60
p1699
sVRemarkPYInitial
p1700
VLX
p1701
sVContactFlag
p1702
I1
sVUin
p1703
I0
sVNickName
p1704
V\u60f3~
p1705
sVAppAccountFlag
p1706
I0
sVVerifyFlag
p1707
I0
sVRemarkPYQuanPin
p1708
Vlixiang
p1709
sVHeadImgUrl
p1710
V/cgi-bin/mmwebwx-bin/webwxgeticon?seq=683275989&username=@d0bd5d0a76d00fa5b4ab906a845051da&skey=@crypt_d5e09b21_f6d4eb8ff700a7cb445282cdd5f699d7
p1711
sVKeyWord
p1712
Vlix
p1713
sVProvince
p1714
V\u5b81\u590f
p1715
sVPYInitial
p1716
g763
sVRemarkName
p1717
V\u674e\u60f3
p1718
sVIsOwner
p1719
I0
sVSex
p1720
I2
sVStarFriend
p1721
I0
sVHideInputBarFlag
p1722
I0
sVChatRoomId
p1723
I0
sVEncryChatRoomId
p1724
g55
sVAttrStatus
p1725
I101479
sVStatues
p1726
I0
stp1727
Rp1728
I1
bag34
(g38
g39
(dp1729
VUserName
p1730
V@962998fc5cce5b7a0614ae8a90e48c7d
p1731
sVCity
p1732
g55
sVSnsFlag
p1733
I17
sVDisplayName
p1734
g55
sVUniFriend
p1735
I0
sVMemberCount
p1736
I0
sVOwnerUin
p1737
I0
sVMemberList
p1738
g51
sVAlias
p1739
g55
sVPYQuanPin
p1740
VQuiet
p1741
sVSignature
p1742
VO(\u2229_\u2229)O~
p1743
sVRemarkPYInitial
p1744
VXWP
p1745
sVContactFlag
p1746
I3
sVUin
p1747
I0
sVNickName
p1748
VQuiet
p1749
sVAppAccountFlag
p1750
I0
sVVerifyFlag
p1751
I0
sVRemarkPYQuanPin
p1752
Vxiaowangpei
p1753
sVHeadImgUrl
p1754
V/cgi-bin/mmwebwx-bin/webwxgeticon?seq=683277259&username=@962998fc5cce5b7a0614ae8a90e48c7d&skey=@crypt_d5e09b21_f6d4eb8ff700a7cb445282cdd5f699d7
p1755
sVKeyWord
p1756
Vwp6
p1757
sVProvince
p1758
g55
sVPYInitial
p1759
VQUIET
p1760
sVRemarkName
p1761
V\u5c0f\u738b\u57f9
p1762
sVIsOwner
p1763
I0
sVSex
p1764
I1
sVStarFriend
p1765
I0
sVHideInputBarFlag
p1766
I0
sVChatRoomId
p1767
I0
sVEncryChatRoomId
p1768
g55
sVAttrStatus
p1769
I39
sVStatues
p1770
I0
stp1771
Rp1772
I1
bag34
(g38
g39
(dp1773
VUserName
p1774
V@d45f6d82516de3a1600f8e34605307fc
p1775
sVCity
p1776
V\u94f6\u5ddd
p1777
sVSnsFlag
p1778
I17
sVDisplayName
p1779
g55
sVUniFriend
p1780
I0
sVMemberCount
p1781
I0
sVOwnerUin
p1782
I0
sVMemberList
p1783
g51
sVAlias
p1784
g55
sVPYQuanPin
p1785
Vzhicheng
p1786
sVSignature
p1787
V\u81ea\u5f3a\u4e0d\u606f
p1788
sVRemarkPYInitial
p1789
VTZC
p1790
sVContactFlag
p1791
I3
sVUin
p1792
I0
sVNickName
p1793
V\u5fd7\u6210
p1794
sVAppAccountFlag
p1795
I0
sVVerifyFlag
p1796
I0
sVRemarkPYQuanPin
p1797
Vtianzhicheng
p1798
sVHeadImgUrl
p1799
V/cgi-bin/mmwebwx-bin/webwxgeticon?seq=683277338&username=@d45f6d82516de3a1600f8e34605307fc&skey=@crypt_d5e09b21_f6d4eb8ff700a7cb445282cdd5f699d7
p1800
sVKeyWord
p1801
Vt24
p1802
sVProvince
p1803
V\u5b81\u590f
p1804
sVPYInitial
p1805
VZC
p1806
sVRemarkName
p1807
V\u7530\u5fd7\u6210
p1808
sVIsOwner
p1809
I0
sVSex
p1810
I1
sVStarFriend
p1811
I0
sVHideInputBarFlag
p1812
I0
sVChatRoomId
p1813
I0
sVEncryChatRoomId
p1814
g55
sVAttrStatus
p1815
I16880679
sVStatues
p1816
I0
stp1817
Rp1818
I1
bag34
(g38
g39
(dp1819
VUserName
p1820
V@f26dbccd9747770758109520bcffb57e
p1821
sVCity
p1822
V\u94f6\u5ddd
p1823
sVSnsFlag
p1824
I17
sVDisplayName
p1825
g55
sVUniFriend
p1826
I0
sVMemberCount
p1827
I0
sVOwnerUin
p1828
I0
sVMemberList
p1829
g51
sVAlias
p1830
g55
sVPYQuanPin
p1831
Vlijiamei
p1832
sVSignature
p1833
V\u73cd\u60dc\u73b0\u5728\uff0c\u56e0\u4e3a\u5728\u4e0b\u4e00\u4e16\uff0c\u6211\u4eec\u518d\u96be\u76f8\u9022\uff01
p1834
sVRemarkPYInitial
p1835
g55
sVContactFlag
p1836
I32771
sVUin
p1837
I0
sVNickName
p1838
V\u674e\u4f73\u7f8e
p1839
sVAppAccountFlag
p1840
I0
sVVerifyFlag
p1841
I0
sVRemarkPYQuanPin
p1842
g55
sVHeadImgUrl
p1843
V/cgi-bin/mmwebwx-bin/webwxgeticon?seq=683277702&username=@f26dbccd9747770758109520bcffb57e&skey=@crypt_d5e09b21_f6d4eb8ff700a7cb445282cdd5f699d7
p1844
sVKeyWord
p1845
VEvi
p1846
sVProvince
p1847
V\u5b81\u590f
p1848
sVPYInitial
p1849
VLJM
p1850
sVRemarkName
p1851
g55
sVIsOwner
p1852
I0
sVSex
p1853
I2
sVStarFriend
p1854
I0
sVHideInputBarFlag
p1855
I0
sVChatRoomId
p1856
I0
sVEncryChatRoomId
p1857
g55
sVAttrStatus
p1858
I98495
sVStatues
p1859
I0
stp1860
Rp1861
I1
bag34
(g38
g39
(dp1862
VUserName
p1863
V@17153fc23fc140a307bcd919168b2b7900b050c4a2c2be92f226ae35a60d2c04
p1864
sVCity
p1865
V\u5f20\u6396
p1866
sVSnsFlag
p1867
I48
sVDisplayName
p1868
g55
sVUniFriend
p1869
I0
sVMemberCount
p1870
I0
sVOwnerUin
p1871
I0
sVMemberList
p1872
g51
sVAlias
p1873
g55
sVPYQuanPin
p1874
Verdong
p1875
sVSignature
p1876
g55
sVRemarkPYInitial
p1877
VCY
p1878
sVContactFlag
p1879
I3
sVUin
p1880
I0
sVNickName
p1881
V\u5c14\u4e1c
p1882
sVAppAccountFlag
p1883
I0
sVVerifyFlag
p1884
I0
sVRemarkPYQuanPin
p1885
Vchenyu
p1886
sVHeadImgUrl
p1887
V/cgi-bin/mmwebwx-bin/webwxgeticon?seq=683229820&username=@17153fc23fc140a307bcd919168b2b7900b050c4a2c2be92f226ae35a60d2c04&skey=@crypt_d5e09b21_f6d4eb8ff700a7cb445282cdd5f699d7
p1888
sVKeyWord
p1889
g55
sVProvince
p1890
V\u7518\u8083
p1891
sVPYInitial
p1892
VED
p1893
sVRemarkName
p1894
V\u9648\u94b0
p1895
sVIsOwner
p1896
I0
sVSex
p1897
I1
sVStarFriend
p1898
I0
sVHideInputBarFlag
p1899
I0
sVChatRoomId
p1900
I0
sVEncryChatRoomId
p1901
g55
sVAttrStatus
p1902
I33657021
sVStatues
p1903
I0
stp1904
Rp1905
I1
bag34
(g38
g39
(dp1906
VUserName
p1907
V@a5c1de093c6973e899c6bdc764b40d65
p1908
sVCity
p1909
g55
sVSnsFlag
p1910
I49
sVDisplayName
p1911
g55
sVUniFriend
p1912
I0
sVMemberCount
p1913
I0
sVOwnerUin
p1914
I0
sVMemberList
p1915
g51
sVAlias
p1916
g55
sVPYQuanPin
p1917
VNiMaHai
p1918
sVSignature
p1919
g55
sVRemarkPYInitial
p1920
VQS
p1921
sVContactFlag
p1922
I1
sVUin
p1923
I0
sVNickName
p1924
VNiMaHai
p1925
sVAppAccountFlag
p1926
I0
sVVerifyFlag
p1927
I0
sVRemarkPYQuanPin
p1928
Vqiansan
p1929
sVHeadImgUrl
p1930
V/cgi-bin/mmwebwx-bin/webwxgeticon?seq=683278549&username=@a5c1de093c6973e899c6bdc764b40d65&skey=@crypt_d5e09b21_f6d4eb8ff700a7cb445282cdd5f699d7
p1931
sVKeyWord
p1932
Vaut
p1933
sVProvince
p1934
g55
sVPYInitial
p1935
VNIMAHAI
p1936
sVRemarkName
p1937
V\u524d\u4e09
p1938
sVIsOwner
p1939
I0
sVSex
p1940
I1
sVStarFriend
p1941
I0
sVHideInputBarFlag
p1942
I0
sVChatRoomId
p1943
I0
sVEncryChatRoomId
p1944
g55
sVAttrStatus
p1945
I67347559
sVStatues
p1946
I0
stp1947
Rp1948
I1
bag34
(g38
g39
(dp1949
VUserName
p1950
V@7052bbd45c5fd60bfcba363c7939cab297977f8d39afda3acb2692520e70a3d5
p1951
sVCity
p1952
V\u94f6\u5ddd
p1953
sVSnsFlag
p1954
I49
sVDisplayName
p1955
g55
sVUniFriend
p1956
I0
sVMemberCount
p1957
I0
sVOwnerUin
p1958
I0
sVMemberList
p1959
g51
sVAlias
p1960
g55
sVPYQuanPin
p1961
Vzhaojing
p1962
sVSignature
p1963
V\u4eba\u4e0e\u4eba\u6700\u5c0f\u7684\u5dee\u8ddd\u662f\u667a\u5546\uff0c\u6700\u5927\u7684\u5dee\u8ddd\u662f\u575a\u6301\uff01
p1964
sVRemarkPYInitial
p1965
g55
sVContactFlag
p1966
I1
sVUin
p1967
I0
sVNickName
p1968
V\u8d75\u9753
p1969
sVAppAccountFlag
p1970
I0
sVVerifyFlag
p1971
I0
sVRemarkPYQuanPin
p1972
g55
sVHeadImgUrl
p1973
V/cgi-bin/mmwebwx-bin/webwxgeticon?seq=683234361&username=@7052bbd45c5fd60bfcba363c7939cab297977f8d39afda3acb2692520e70a3d5&skey=@crypt_d5e09b21_f6d4eb8ff700a7cb445282cdd5f699d7
p1974
sVKeyWord
p1975
g55
sVProvince
p1976
V\u5b81\u590f
p1977
sVPYInitial
p1978
VZJ
p1979
sVRemarkName
p1980
g55
sVIsOwner
p1981
I0
sVSex
p1982
I2
sVStarFriend
p1983
I0
sVHideInputBarFlag
p1984
I0
sVChatRoomId
p1985
I0
sVEncryChatRoomId
p1986
g55
sVAttrStatus
p1987
I103933
sVStatues
p1988
I0
stp1989
Rp1990
I1
bag34
(g38
g39
(dp1991
VUserName
p1992
V@6da70a1242f7422c9dcb644d2f7d0e07
p1993
sVCity
p1994
V\u94f6\u5ddd
p1995
sVSnsFlag
p1996
I17
sVDisplayName
p1997
g55
sVUniFriend
p1998
I0
sVMemberCount
p1999
I0
sVOwnerUin
p2000
I0
sVMemberList
p2001
g51
sVAlias
p2002
g55
sVPYQuanPin
p2003
Vgwallence
p2004
sVSignature
p2005
V\U0001f913
p2006
sVRemarkPYInitial
p2007
VLJ
p2008
sVContactFlag
p2009
I3
sVUin
p2010
I0
sVNickName
p2011
Vgwallence
p2012
sVAppAccountFlag
p2013
I0
sVVerifyFlag
p2014
I0
sVRemarkPYQuanPin
p2015
Vliuji
p2016
sVHeadImgUrl
p2017
V/cgi-bin/mmwebwx-bin/webwxgeticon?seq=683261409&username=@6da70a1242f7422c9dcb644d2f7d0e07&skey=@crypt_d5e09b21_f6d4eb8ff700a7cb445282cdd5f699d7
p2018
sVKeyWord
p2019
Vhui
p2020
sVProvince
p2021
V\u5b81\u590f
p2022
sVPYInitial
p2023
VGWALLENCE
p2024
sVRemarkName
p2025
V\u5218\u9aa5
p2026
sVIsOwner
p2027
I0
sVSex
p2028
I2
sVStarFriend
p2029
I0
sVHideInputBarFlag
p2030
I0
sVChatRoomId
p2031
I0
sVEncryChatRoomId
p2032
g55
sVAttrStatus
p2033
I105471
sVStatues
p2034
I0
stp2035
Rp2036
I1
bag34
(g38
g39
(dp2037
VUserName
p2038
V@10d93c3b94a8e9db19a7b139c0481e48
p2039
sVCity
p2040
V\u6c5f\u95e8
p2041
sVSnsFlag
p2042
I49
sVDisplayName
p2043
g55
sVUniFriend
p2044
I0
sVMemberCount
p2045
I0
sVOwnerUin
p2046
I0
sVMemberList
p2047
g51
sVAlias
p2048
g55
sVPYQuanPin
p2049
Vwuzispanclassemojiemoji2600span?
p2050
sVSignature
p2051
g55
sVRemarkPYInitial
p2052
VDW
p2053
sVContactFlag
p2054
I1
sVUin
p2055
I0
sVNickName
p2056
V\u5434\u5b50\u2600\ufe0f
p2057
sVAppAccountFlag
p2058
I0
sVVerifyFlag
p2059
I0
sVRemarkPYQuanPin
p2060
Vdawang
p2061
sVHeadImgUrl
p2062
V/cgi-bin/mmwebwx-bin/webwxgeticon?seq=629927762&username=@10d93c3b94a8e9db19a7b139c0481e48&skey=@crypt_d5e09b21_f6d4eb8ff700a7cb445282cdd5f699d7
p2063
sVKeyWord
p2064
Vyc2
p2065
sVProvince
p2066
V\u5e7f\u4e1c
p2067
sVPYInitial
p2068
VWZSPANCLASSEMOJIEMOJI2600SPAN?
p2069
sVRemarkName
p2070
V\u5927\u738b
p2071
sVIsOwner
p2072
I0
sVSex
p2073
I1
sVStarFriend
p2074
I0
sVHideInputBarFlag
p2075
I0
sVChatRoomId
p2076
I0
sVEncryChatRoomId
p2077
g55
sVAttrStatus
p2078
I208999
sVStatues
p2079
I0
stp2080
Rp2081
I1
bag34
(g38
g39
(dp2082
VUserName
p2083
V@63fa91ec59a73ad3b0addbe6a9a59690
p2084
sVCity
p2085
V\u5357\u4eac
p2086
sVSnsFlag
p2087
I17
sVDisplayName
p2088
g55
sVUniFriend
p2089
I0
sVMemberCount
p2090
I0
sVOwnerUin
p2091
I0
sVMemberList
p2092
g51
sVAlias
p2093
g55
sVPYQuanPin
p2094
Vdaoqingwen
p2095
sVSignature
p2096
V\u5373\u4f7f\u53d1\u73b0\u4e86\u751f\u6d3b\u7684\u771f\u76f8\u4e5f\u8981\u76f8\u4fe1\u751f\u6d3b\u3002
p2097
sVRemarkPYInitial
p2098
VWD
p2099
sVContactFlag
p2100
I1
sVUin
p2101
I0
sVNickName
p2102
V\u5200\u5e86\u6587
p2103
sVAppAccountFlag
p2104
I0
sVVerifyFlag
p2105
I0
sVRemarkPYQuanPin
p2106
Vwodao
p2107
sVHeadImgUrl
p2108
V/cgi-bin/mmwebwx-bin/webwxgeticon?seq=683281617&username=@63fa91ec59a73ad3b0addbe6a9a59690&skey=@crypt_d5e09b21_f6d4eb8ff700a7cb445282cdd5f699d7
p2109
sVKeyWord
p2110
Vq11
p2111
sVProvince
p2112
V\u6c5f\u82cf
p2113
sVPYInitial
p2114
VDQW
p2115
sVRemarkName
p2116
V\u6211\u5200
p2117
sVIsOwner
p2118
I0
sVSex
p2119
I1
sVStarFriend
p2120
I0
sVHideInputBarFlag
p2121
I0
sVChatRoomId
p2122
I0
sVEncryChatRoomId
p2123
g55
sVAttrStatus
p2124
I98343
sVStatues
p2125
I0
stp2126
Rp2127
I1
bag34
(g38
g39
(dp2128
VUserName
p2129
V@3ff23d870882e12777d38a99b52f748194ce47a74cc29be89ca17f775acad0ad
p2130
sVCity
p2131
V\u94f6\u5ddd
p2132
sVSnsFlag
p2133
I49
sVDisplayName
p2134
g55
sVUniFriend
p2135
I0
sVMemberCount
p2136
I0
sVOwnerUin
p2137
I0
sVMemberList
p2138
g51
sVAlias
p2139
g55
sVPYQuanPin
p2140
Vhoulai
p2141
sVSignature
p2142
g55
sVRemarkPYInitial
p2143
VXG
p2144
sVContactFlag
p2145
I1
sVUin
p2146
I0
sVNickName
p2147
V\u540e\u6765
p2148
sVAppAccountFlag
p2149
I0
sVVerifyFlag
p2150
I0
sVRemarkPYQuanPin
p2151
Vxiaogu
p2152
sVHeadImgUrl
p2153
V/cgi-bin/mmwebwx-bin/webwxgeticon?seq=683223839&username=@3ff23d870882e12777d38a99b52f748194ce47a74cc29be89ca17f775acad0ad&skey=@crypt_d5e09b21_f6d4eb8ff700a7cb445282cdd5f699d7
p2154
sVKeyWord
p2155
g55
sVProvince
p2156
V\u5b81\u590f
p2157
sVPYInitial
p2158
VHL
p2159
sVRemarkName
p2160
V\u5c0f\u59d1
p2161
sVIsOwner
p2162
I0
sVSex
p2163
I2
sVStarFriend
p2164
I0
sVHideInputBarFlag
p2165
I0
sVChatRoomId
p2166
I0
sVEncryChatRoomId
p2167
g55
sVAttrStatus
p2168
I237223
sVStatues
p2169
I0
stp2170
Rp2171
I1
bag34
(g38
g39
(dp2172
VUserName
p2173
V@4e6c675a522bacf31e13fbacb009b9c9
p2174
sVCity
p2175
V\u94f6\u5ddd
p2176
sVSnsFlag
p2177
I17
sVDisplayName
p2178
g55
sVUniFriend
p2179
I0
sVMemberCount
p2180
I0
sVOwnerUin
p2181
I0
sVMemberList
p2182
g51
sVAlias
p2183
g55
sVPYQuanPin
p2184
Vwhocare
p2185
sVSignature
p2186
V\u2026\u2026\u2026\u2026\u2026\u2026\u2026\u2026\u2026\u2026
p2187
sVRemarkPYInitial
p2188
VDG
p2189
sVContactFlag
p2190
I3
sVUin
p2191
I0
sVNickName
p2192
Vwho care
p2193
sVAppAccountFlag
p2194
I0
sVVerifyFlag
p2195
I0
sVRemarkPYQuanPin
p2196
Vdage
p2197
sVHeadImgUrl
p2198
V/cgi-bin/mmwebwx-bin/webwxgeticon?seq=683281853&username=@4e6c675a522bacf31e13fbacb009b9c9&skey=@crypt_d5e09b21_f6d4eb8ff700a7cb445282cdd5f699d7
p2199
sVKeyWord
p2200
Vchb
p2201
sVProvince
p2202
V\u5b81\u590f
p2203
sVPYInitial
p2204
VWHOCARE
p2205
sVRemarkName
p2206
V\u5927\u54e5
p2207
sVIsOwner
p2208
I0
sVSex
p2209
I1
sVStarFriend
p2210
I0
sVHideInputBarFlag
p2211
I0
sVChatRoomId
p2212
I0
sVEncryChatRoomId
p2213
g55
sVAttrStatus
p2214
I102439
sVStatues
p2215
I0
stp2216
Rp2217
I1
bag34
(g38
g39
(dp2218
VUserName
p2219
V@3bea145076bddfc01cefcb0ec9a7d1c8
p2220
sVCity
p2221
V\u6210\u90fd
p2222
sVSnsFlag
p2223
I49
sVDisplayName
p2224
g55
sVUniFriend
p2225
I0
sVMemberCount
p2226
I0
sVOwnerUin
p2227
I0
sVMemberList
p2228
g51
sVAlias
p2229
g55
sVPYQuanPin
p2230
Vhanfei
p2231
sVSignature
p2232
VColor my life with chaos of trouble, with you.
p2233
sVRemarkPYInitial
p2234
VHF
p2235
sVContactFlag
p2236
I1
sVUin
p2237
I0
sVNickName
p2238
V\u97e9\u6590
p2239
sVAppAccountFlag
p2240
I0
sVVerifyFlag
p2241
I0
sVRemarkPYQuanPin
p2242
Vhanfei
p2243
sVHeadImgUrl
p2244
V/cgi-bin/mmwebwx-bin/webwxgeticon?seq=683282925&username=@3bea145076bddfc01cefcb0ec9a7d1c8&skey=@crypt_d5e09b21_f6d4eb8ff700a7cb445282cdd5f699d7
p2245
sVKeyWord
p2246
Vhan
p2247
sVProvince
p2248
V\u56db\u5ddd
p2249
sVPYInitial
p2250
VHF
p2251
sVRemarkName
p2252
V\u97e9\u6590
p2253
sVIsOwner
p2254
I0
sVSex
p2255
I1
sVStarFriend
p2256
I0
sVHideInputBarFlag
p2257
I0
sVChatRoomId
p2258
I0
sVEncryChatRoomId
p2259
g55
sVAttrStatus
p2260
I102567
sVStatues
p2261
I0
stp2262
Rp2263
I1
bag34
(g38
g39
(dp2264
VUserName
p2265
V@047cc876ebb25c926e27bafb5f11cb8e506e6af397f1fd6d11b8d8d0ff81fcb9
p2266
sVCity
p2267
V\u94f6\u5ddd
p2268
sVSnsFlag
p2269
I17
sVDisplayName
p2270
g55
sVUniFriend
p2271
I0
sVMemberCount
p2272
I0
sVOwnerUin
p2273
I0
sVMemberList
p2274
g51
sVAlias
p2275
g55
sVPYQuanPin
p2276
Vliuminxian
p2277
sVSignature
p2278
g55
sVRemarkPYInitial
p2279
g55
sVContactFlag
p2280
I1
sVUin
p2281
I0
sVNickName
p2282
V\u5218\u654f\u8d24
p2283
sVAppAccountFlag
p2284
I0
sVVerifyFlag
p2285
I0
sVRemarkPYQuanPin
p2286
g55
sVHeadImgUrl
p2287
V/cgi-bin/mmwebwx-bin/webwxgeticon?seq=683261402&username=@047cc876ebb25c926e27bafb5f11cb8e506e6af397f1fd6d11b8d8d0ff81fcb9&skey=@crypt_d5e09b21_f6d4eb8ff700a7cb445282cdd5f699d7
p2288
sVKeyWord
p2289
g55
sVProvince
p2290
V\u5b81\u590f
p2291
sVPYInitial
p2292
VLMX
p2293
sVRemarkName
p2294
g55
sVIsOwner
p2295
I0
sVSex
p2296
I1
sVStarFriend
p2297
I0
sVHideInputBarFlag
p2298
I0
sVChatRoomId
p2299
I0
sVEncryChatRoomId
p2300
g55
sVAttrStatus
p2301
I102501
sVStatues
p2302
I0
stp2303
Rp2304
I1
bag34
(g38
g39
(dp2305
VUserName
p2306
V@41ac88ac7f0fc8a21225e53f743bdef4
p2307
sVCity
p2308
g55
sVSnsFlag
p2309
I49
sVDisplayName
p2310
g55
sVUniFriend
p2311
I0
sVMemberCount
p2312
I0
sVOwnerUin
p2313
I0
sVMemberList
p2314
g51
sVAlias
p2315
g55
sVPYQuanPin
p2316
Vnabei
p2317
sVSignature
p2318
V\u8001\u65e0\u6240\u4f9d\u3002
p2319
sVRemarkPYInitial
p2320
g55
sVContactFlag
p2321
I1
sVUin
p2322
I0
sVNickName
p2323
V\u5357\u5317\u3002
p2324
sVAppAccountFlag
p2325
I0
sVVerifyFlag
p2326
I0
sVRemarkPYQuanPin
p2327
g55
sVHeadImgUrl
p2328
V/cgi-bin/mmwebwx-bin/webwxgeticon?seq=683284001&username=@41ac88ac7f0fc8a21225e53f743bdef4&skey=@crypt_d5e09b21_f6d4eb8ff700a7cb445282cdd5f699d7
p2329
sVKeyWord
p2330
Vtao
p2331
sVProvince
p2332
VFirenze
p2333
sVPYInitial
p2334
VNB
p2335
sVRemarkName
p2336
g55
sVIsOwner
p2337
I0
sVSex
p2338
I1
sVStarFriend
p2339
I0
sVHideInputBarFlag
p2340
I0
sVChatRoomId
p2341
I0
sVEncryChatRoomId
p2342
g55
sVAttrStatus
p2343
I121445
sVStatues
p2344
I0
stp2345
Rp2346
I1
bag34
(g38
g39
(dp2347
VUserName
p2348
V@85fc4ac945fcbbbd9bf4aa0885271ebb
p2349
sVCity
p2350
V\u94f6\u5ddd
p2351
sVSnsFlag
p2352
I17
sVDisplayName
p2353
g55
sVUniFriend
p2354
I0
sVMemberCount
p2355
I0
sVOwnerUin
p2356
I0
sVMemberList
p2357
g51
sVAlias
p2358
g55
sVPYQuanPin
p2359
Vxueying
p2360
sVSignature
p2361
V\u795e\u5dde\u79df\u8f66   \u4f60\u6700\u597d\u7684\u9009\u62e9
p2362
sVRemarkPYInitial
p2363
VZL
p2364
sVContactFlag
p2365
I1
sVUin
p2366
I0
sVNickName
p2367
V\u96ea\u9e70
p2368
sVAppAccountFlag
p2369
I0
sVVerifyFlag
p2370
I0
sVRemarkPYQuanPin
p2371
Vzhangliang
p2372
sVHeadImgUrl
p2373
V/cgi-bin/mmwebwx-bin/webwxgeticon?seq=683284332&username=@85fc4ac945fcbbbd9bf4aa0885271ebb&skey=@crypt_d5e09b21_f6d4eb8ff700a7cb445282cdd5f699d7
p2374
sVKeyWord
p2375
Vzha
p2376
sVProvince
p2377
V\u5b81\u590f
p2378
sVPYInitial
p2379
VXY
p2380
sVRemarkName
p2381
V\u5f20\u4eae
p2382
sVIsOwner
p2383
I0
sVSex
p2384
I1
sVStarFriend
p2385
I0
sVHideInputBarFlag
p2386
I0
sVChatRoomId
p2387
I0
sVEncryChatRoomId
p2388
g55
sVAttrStatus
p2389
I241767
sVStatues
p2390
I0
stp2391
Rp2392
I1
bag34
(g38
g39
(dp2393
VUserName
p2394
V@cc8f65e109d65164acfaa9490c67def6
p2395
sVCity
p2396
V\u9752\u5c9b
p2397
sVSnsFlag
p2398
I17
sVDisplayName
p2399
g55
sVUniFriend
p2400
I0
sVMemberCount
p2401
I0
sVOwnerUin
p2402
I0
sVMemberList
p2403
g51
sVAlias
p2404
g55
sVPYQuanPin
p2405
VLin
p2406
sVSignature
p2407
V\u8bdd\u592a\u591a\u4e86\u5f97\u6cbb
p2408
sVRemarkPYInitial
p2409
VWH
p2410
sVContactFlag
p2411
I1
sVUin
p2412
I0
sVNickName
p2413
VLin
p2414
sVAppAccountFlag
p2415
I0
sVVerifyFlag
p2416
I0
sVRemarkPYQuanPin
p2417
Vwohui
p2418
sVHeadImgUrl
p2419
V/cgi-bin/mmwebwx-bin/webwxgeticon?seq=636531334&username=@cc8f65e109d65164acfaa9490c67def6&skey=@crypt_d5e09b21_f6d4eb8ff700a7cb445282cdd5f699d7
p2420
sVKeyWord
p2421
Va13
p2422
sVProvince
p2423
V\u5c71\u4e1c
p2424
sVPYInitial
p2425
VLIN
p2426
sVRemarkName
p2427
V\u6211\u8f89
p2428
sVIsOwner
p2429
I0
sVSex
p2430
I1
sVStarFriend
p2431
I0
sVHideInputBarFlag
p2432
I0
sVChatRoomId
p2433
I0
sVEncryChatRoomId
p2434
g55
sVAttrStatus
p2435
I108967
sVStatues
p2436
I0
stp2437
Rp2438
I1
bag34
(g38
g39
(dp2439
VUserName
p2440
V@924a8fc425780fd3f53d46c586a3d7c4
p2441
sVCity
p2442
V\u9752\u5c9b
p2443
sVSnsFlag
p2444
I49
sVDisplayName
p2445
g55
sVUniFriend
p2446
I0
sVMemberCount
p2447
I0
sVOwnerUin
p2448
I0
sVMemberList
p2449
g51
sVAlias
p2450
g55
sVPYQuanPin
p2451
VK
p2452
sVSignature
p2453
g55
sVRemarkPYInitial
p2454
VWB
p2455
sVContactFlag
p2456
I1
sVUin
p2457
I0
sVNickName
p2458
VK.
p2459
sVAppAccountFlag
p2460
I0
sVVerifyFlag
p2461
I0
sVRemarkPYQuanPin
p2462
Vwoben
p2463
sVHeadImgUrl
p2464
V/cgi-bin/mmwebwx-bin/webwxgeticon?seq=627466406&username=@924a8fc425780fd3f53d46c586a3d7c4&skey=@crypt_d5e09b21_f6d4eb8ff700a7cb445282cdd5f699d7
p2465
sVKeyWord
p2466
Va20
p2467
sVProvince
p2468
V\u5c71\u4e1c
p2469
sVPYInitial
p2470
g2452
sVRemarkName
p2471
V\u6211\u7b28
p2472
sVIsOwner
p2473
I0
sVSex
p2474
I1
sVStarFriend
p2475
I0
sVHideInputBarFlag
p2476
I0
sVChatRoomId
p2477
I0
sVEncryChatRoomId
p2478
g55
sVAttrStatus
p2479
I33653223
sVStatues
p2480
I0
stp2481
Rp2482
I1
bag34
(g38
g39
(dp2483
VUserName
p2484
V@3c85875400e40e0c1da397d9dce29fbb37d3bcfb629c3339f301e9aeb9426d93
p2485
sVCity
p2486
V\u9752\u5c9b
p2487
sVSnsFlag
p2488
I1
sVDisplayName
p2489
g55
sVUniFriend
p2490
I0
sVMemberCount
p2491
I0
sVOwnerUin
p2492
I0
sVMemberList
p2493
g51
sVAlias
p2494
g55
sVPYQuanPin
p2495
Vxiaolizi
p2496
sVSignature
p2497
g55
sVRemarkPYInitial
p2498
VWY
p2499
sVContactFlag
p2500
I8195
sVUin
p2501
I0
sVNickName
p2502
V\u5c0f\u674e\u5b50
p2503
sVAppAccountFlag
p2504
I0
sVVerifyFlag
p2505
I0
sVRemarkPYQuanPin
p2506
Vwoyue
p2507
sVHeadImgUrl
p2508
V/cgi-bin/mmwebwx-bin/webwxgeticon?seq=683264888&username=@3c85875400e40e0c1da397d9dce29fbb37d3bcfb629c3339f301e9aeb9426d93&skey=@crypt_d5e09b21_f6d4eb8ff700a7cb445282cdd5f699d7
p2509
sVKeyWord
p2510
g55
sVProvince
p2511
V\u5c71\u4e1c
p2512
sVPYInitial
p2513
VXLZ
p2514
sVRemarkName
p2515
V\u6211\u6708
p2516
sVIsOwner
p2517
I0
sVSex
p2518
I1
sVStarFriend
p2519
I0
sVHideInputBarFlag
p2520
I0
sVChatRoomId
p2521
I0
sVEncryChatRoomId
p2522
g55
sVAttrStatus
p2523
I98341
sVStatues
p2524
I0
stp2525
Rp2526
I1
bag34
(g38
g39
(dp2527
VUserName
p2528
V@1fe55d7b11d426e9b8011291b33c4ac2cf08704cd9b314e21345c037feb3fb92
p2529
sVCity
p2530
V\u897f\u9752
p2531
sVSnsFlag
p2532
I17
sVDisplayName
p2533
g55
sVUniFriend
p2534
I0
sVMemberCount
p2535
I0
sVOwnerUin
p2536
I0
sVMemberList
p2537
g51
sVAlias
p2538
g55
sVPYQuanPin
p2539
VAmyyuan?
p2540
sVSignature
p2541
V\u000a\u000a\u000a\u000a\u000a\u000a\u000a\u000a\u000a\u000a\u000a\u000a\u000a\u000a\u000a\u000a\u000a\u000a
p2542
sVRemarkPYInitial
p2543
VFMY
p2544
sVContactFlag
p2545
I3
sVUin
p2546
I0
sVNickName
p2547
VAmy.\u5a9b\U0001f608
p2548
sVAppAccountFlag
p2549
I0
sVVerifyFlag
p2550
I0
sVRemarkPYQuanPin
p2551
Vfangmengyuan
p2552
sVHeadImgUrl
p2553
V/cgi-bin/mmwebwx-bin/webwxgeticon?seq=683287321&username=@1fe55d7b11d426e9b8011291b33c4ac2cf08704cd9b314e21345c037feb3fb92&skey=@crypt_d5e09b21_f6d4eb8ff700a7cb445282cdd5f699d7
p2554
sVKeyWord
p2555
g55
sVProvince
p2556
V\u5929\u6d25
p2557
sVPYInitial
p2558
VAMYY?
p2559
sVRemarkName
p2560
V\u65b9\u68a6\u5a9b
p2561
sVIsOwner
p2562
I0
sVSex
p2563
I2
sVStarFriend
p2564
I0
sVHideInputBarFlag
p2565
I0
sVChatRoomId
p2566
I0
sVEncryChatRoomId
p2567
g55
sVAttrStatus
p2568
I106597
sVStatues
p2569
I0
stp2570
Rp2571
I1
bag34
(g38
g39
(dp2572
VUserName
p2573
V@fa14e78b754f65f8525a2e103ed3067b
p2574
sVCity
p2575
g55
sVSnsFlag
p2576
I49
sVDisplayName
p2577
g55
sVUniFriend
p2578
I0
sVMemberCount
p2579
I0
sVOwnerUin
p2580
I0
sVMemberList
p2581
g51
sVAlias
p2582
g55
sVPYQuanPin
p2583
VLilith
p2584
sVSignature
p2585
V\u4e2d\u9014\u534a\u7aef
p2586
sVRemarkPYInitial
p2587
VTZ
p2588
sVContactFlag
p2589
I1
sVUin
p2590
I0
sVNickName
p2591
VLilith
p2592
sVAppAccountFlag
p2593
I0
sVVerifyFlag
p2594
I0
sVRemarkPYQuanPin
p2595
Vtuzi
p2596
sVHeadImgUrl
p2597
V/cgi-bin/mmwebwx-bin/webwxgeticon?seq=683288464&username=@fa14e78b754f65f8525a2e103ed3067b&skey=@crypt_d5e09b21_f6d4eb8ff700a7cb445282cdd5f699d7
p2598
sVKeyWord
p2599
VJco
p2600
sVProvince
p2601
VFukuoka
p2602
sVPYInitial
p2603
VLILITH
p2604
sVRemarkName
p2605
V\u5154\u5b50
p2606
sVIsOwner
p2607
I0
sVSex
p2608
I2
sVStarFriend
p2609
I0
sVHideInputBarFlag
p2610
I0
sVChatRoomId
p2611
I0
sVEncryChatRoomId
p2612
g55
sVAttrStatus
p2613
I98343
sVStatues
p2614
I0
stp2615
Rp2616
I1
bag34
(g38
g39
(dp2617
VUserName
p2618
V@d67de12e5abd10d58eb6993bc690d1a2
p2619
sVCity
p2620
V\u6df1\u5733
p2621
sVSnsFlag
p2622
I145
sVDisplayName
p2623
g55
sVUniFriend
p2624
I0
sVMemberCount
p2625
I0
sVOwnerUin
p2626
I0
sVMemberList
p2627
g51
sVAlias
p2628
g55
sVPYQuanPin
p2629
Vniudaren
p2630
sVSignature
p2631
V\u680b\u7237\u4e5f\u662f\u4f60\u53eb\u7684\uff1f
p2632
sVRemarkPYInitial
p2633
VND
p2634
sVContactFlag
p2635
I1
sVUin
p2636
I0
sVNickName
p2637
V\u725b\u5927\u4ec1
p2638
sVAppAccountFlag
p2639
I0
sVVerifyFlag
p2640
I0
sVRemarkPYQuanPin
p2641
Vniudong
p2642
sVHeadImgUrl
p2643
V/cgi-bin/mmwebwx-bin/webwxgeticon?seq=683287048&username=@d67de12e5abd10d58eb6993bc690d1a2&skey=@crypt_d5e09b21_f6d4eb8ff700a7cb445282cdd5f699d7
p2644
sVKeyWord
p2645
Vleo
p2646
sVProvince
p2647
V\u5e7f\u4e1c
p2648
sVPYInitial
p2649
VNDR
p2650
sVRemarkName
p2651
V\u725b\u680b
p2652
sVIsOwner
p2653
I0
sVSex
p2654
I1
sVStarFriend
p2655
I0
sVHideInputBarFlag
p2656
I0
sVChatRoomId
p2657
I0
sVEncryChatRoomId
p2658
g55
sVAttrStatus
p2659
I105087
sVStatues
p2660
I0
stp2661
Rp2662
I1
bag34
(g38
g39
(dp2663
VUserName
p2664
V@1e98d8d08c262d5b334ae65995aef714
p2665
sVCity
p2666
g55
sVSnsFlag
p2667
I49
sVDisplayName
p2668
g55
sVUniFriend
p2669
I0
sVMemberCount
p2670
I0
sVOwnerUin
p2671
I0
sVMemberList
p2672
g51
sVAlias
p2673
g55
sVPYQuanPin
p2674
Vspanclassemojiemoji1f338spanSunshine
p2675
sVSignature
p2676
V\u9a84\u3001\u60a6\u3001\u8d2a\u3001\u6162\u3001\u75f4\u3001\u60d1\u3001\u60d8\u3001\u706d\u3001\u8d4f\u3001
p2677
sVRemarkPYInitial
p2678
VSJ
p2679
sVContactFlag
p2680
I1
sVUin
p2681
I0
sVNickName
p2682
V\U0001f338   Sun'shine
p2683
sVAppAccountFlag
p2684
I0
sVVerifyFlag
p2685
I0
sVRemarkPYQuanPin
p2686
Vsunjia
p2687
sVHeadImgUrl
p2688
V/cgi-bin/mmwebwx-bin/webwxgeticon?seq=629924708&username=@1e98d8d08c262d5b334ae65995aef714&skey=@crypt_d5e09b21_f6d4eb8ff700a7cb445282cdd5f699d7
p2689
sVKeyWord
p2690
Vsad
p2691
sVProvince
p2692
VRoma
p2693
sVPYInitial
p2694
VSPANCLASSEMOJIEMOJI1F338SPANSUNSHINE
p2695
sVRemarkName
p2696
V\u5b59\u4f73
p2697
sVIsOwner
p2698
I0
sVSex
p2699
I2
sVStarFriend
p2700
I0
sVHideInputBarFlag
p2701
I0
sVChatRoomId
p2702
I0
sVEncryChatRoomId
p2703
g55
sVAttrStatus
p2704
I92007
sVStatues
p2705
I0
stp2706
Rp2707
I1
bag34
(g38
g39
(dp2708
VUserName
p2709
V@a2f2f007e3a00648c822ab3892408475
p2710
sVCity
p2711
V\u94f6\u5ddd
p2712
sVSnsFlag
p2713
I17
sVDisplayName
p2714
g55
sVUniFriend
p2715
I0
sVMemberCount
p2716
I0
sVOwnerUin
p2717
I0
sVMemberList
p2718
g51
sVAlias
p2719
g55
sVPYQuanPin
p2720
VMaverickcat
p2721
sVSignature
p2722
V\u81ea\u7231\uff0c\u6c89\u7a33\uff0c\u800c\u540e\u7231\u4eba\u3002
p2723
sVRemarkPYInitial
p2724
VWY
p2725
sVContactFlag
p2726
I1
sVUin
p2727
I0
sVNickName
p2728
VMaverick cat.
p2729
sVAppAccountFlag
p2730
I0
sVVerifyFlag
p2731
I0
sVRemarkPYQuanPin
p2732
Vwangyue
p2733
sVHeadImgUrl
p2734
V/cgi-bin/mmwebwx-bin/webwxgeticon?seq=683288956&username=@a2f2f007e3a00648c822ab3892408475&skey=@crypt_d5e09b21_f6d4eb8ff700a7cb445282cdd5f699d7
p2735
sVKeyWord
p2736
Vwan
p2737
sVProvince
p2738
V\u5b81\u590f
p2739
sVPYInitial
p2740
VMAVERICKCAT
p2741
sVRemarkName
p2742
V\u738b\u60a6
p2743
sVIsOwner
p2744
I0
sVSex
p2745
I2
sVStarFriend
p2746
I0
sVHideInputBarFlag
p2747
I0
sVChatRoomId
p2748
I0
sVEncryChatRoomId
p2749
g55
sVAttrStatus
p2750
I243199
sVStatues
p2751
I0
stp2752
Rp2753
I1
bag34
(g38
g39
(dp2754
VUserName
p2755
V@311a1a247ca28a7986d78cfda23a476aea3534b09260fdf74990879d3eb47199
p2756
sVCity
p2757
V\u94f6\u5ddd
p2758
sVSnsFlag
p2759
I17
sVDisplayName
p2760
g55
sVUniFriend
p2761
I0
sVMemberCount
p2762
I0
sVOwnerUin
p2763
I0
sVMemberList
p2764
g51
sVAlias
p2765
g55
sVPYQuanPin
p2766
Vyuanshoujie
p2767
sVSignature
p2768
V\u6052\u6e90\u6c7d\u8f66\u7ef4\u4fee\u884c\uff0c\u4e3b\u8425:\u6c7d\u8f66\u7ef4\u4fee\u3001\u4fdd\u517b\u53ca\u4e8c\u624b\u8f66\u6536\u8d2d13895388686.
p2769
sVRemarkPYInitial
p2770
g55
sVContactFlag
p2771
I32771
sVUin
p2772
I0
sVNickName
p2773
V\u8881\u9996\u6770
p2774
sVAppAccountFlag
p2775
I0
sVVerifyFlag
p2776
I0
sVRemarkPYQuanPin
p2777
g55
sVHeadImgUrl
p2778
V/cgi-bin/mmwebwx-bin/webwxgeticon?seq=683291092&username=@311a1a247ca28a7986d78cfda23a476aea3534b09260fdf74990879d3eb47199&skey=@crypt_d5e09b21_f6d4eb8ff700a7cb445282cdd5f699d7
p2779
sVKeyWord
p2780
g55
sVProvince
p2781
V\u5b81\u590f
p2782
sVPYInitial
p2783
VYSJ
p2784
sVRemarkName
p2785
g55
sVIsOwner
p2786
I0
sVSex
p2787
I1
sVStarFriend
p2788
I0
sVHideInputBarFlag
p2789
I0
sVChatRoomId
p2790
I0
sVEncryChatRoomId
p2791
g55
sVAttrStatus
p2792
I102501
sVStatues
p2793
I0
stp2794
Rp2795
I1
bag34
(g38
g39
(dp2796
VUserName
p2797
V@759542b7c0ee4ab7c2881609f53e04837826c0325f370ec37d301b7607c451e8
p2798
sVCity
p2799
V\u9752\u5c9b
p2800
sVSnsFlag
p2801
I17
sVDisplayName
p2802
g55
sVUniFriend
p2803
I0
sVMemberCount
p2804
I0
sVOwnerUin
p2805
I0
sVMemberList
p2806
g51
sVAlias
p2807
g55
sVPYQuanPin
p2808
Vchunbai
p2809
sVSignature
p2810
g55
sVRemarkPYInitial
p2811
VJCJ
p2812
sVContactFlag
p2813
I1
sVUin
p2814
I0
sVNickName
p2815
V\u6625\u767d
p2816
sVAppAccountFlag
p2817
I0
sVVerifyFlag
p2818
I0
sVRemarkPYQuanPin
p2819
Vjiechunjuan
p2820
sVHeadImgUrl
p2821
V/cgi-bin/mmwebwx-bin/webwxgeticon?seq=676091633&username=@759542b7c0ee4ab7c2881609f53e04837826c0325f370ec37d301b7607c451e8&skey=@crypt_d5e09b21_f6d4eb8ff700a7cb445282cdd5f699d7
p2822
sVKeyWord
p2823
g55
sVProvince
p2824
V\u5c71\u4e1c
p2825
sVPYInitial
p2826
VCB
p2827
sVRemarkName
p2828
V\u9889\u6625\u5a1f
p2829
sVIsOwner
p2830
I0
sVSex
p2831
I2
sVStarFriend
p2832
I0
sVHideInputBarFlag
p2833
I0
sVChatRoomId
p2834
I0
sVEncryChatRoomId
p2835
g55
sVAttrStatus
p2836
I98749
sVStatues
p2837
I0
stp2838
Rp2839
I1
bag34
(g38
g39
(dp2840
VUserName
p2841
V@37e0acd333e1cf51fb5afdd1a10a25a9c3e6254bc324eaf9ca7d204fb10440f7
p2842
sVCity
p2843
V\u6df1\u5733
p2844
sVSnsFlag
p2845
I17
sVDisplayName
p2846
g55
sVUniFriend
p2847
I0
sVMemberCount
p2848
I0
sVOwnerUin
p2849
I0
sVMemberList
p2850
g51
sVAlias
p2851
g55
sVPYQuanPin
p2852
Vchen
p2853
sVSignature
p2854
V\u5f53\u90a3\u5929\u6765\u4e34\u3002
p2855
sVRemarkPYInitial
p2856
VWX
p2857
sVContactFlag
p2858
I1
sVUin
p2859
I0
sVNickName
p2860
V\u9648
p2861
sVAppAccountFlag
p2862
I0
sVVerifyFlag
p2863
I0
sVRemarkPYQuanPin
p2864
Vwoxiang
p2865
sVHeadImgUrl
p2866
V/cgi-bin/mmwebwx-bin/webwxgeticon?seq=683243389&username=@37e0acd333e1cf51fb5afdd1a10a25a9c3e6254bc324eaf9ca7d204fb10440f7&skey=@crypt_d5e09b21_f6d4eb8ff700a7cb445282cdd5f699d7
p2867
sVKeyWord
p2868
g55
sVProvince
p2869
V\u5e7f\u4e1c
p2870
sVPYInitial
p2871
VC
p2872
sVRemarkName
p2873
V\u6211\u7fd4
p2874
sVIsOwner
p2875
I0
sVSex
p2876
I1
sVStarFriend
p2877
I0
sVHideInputBarFlag
p2878
I0
sVChatRoomId
p2879
I0
sVEncryChatRoomId
p2880
g55
sVAttrStatus
p2881
I69669
sVStatues
p2882
I0
stp2883
Rp2884
I1
bag34
(g38
g39
(dp2885
VUserName
p2886
V@55141f544503ccb62123dd0e65046b6b
p2887
sVCity
p2888
V\u94f6\u5ddd
p2889
sVSnsFlag
p2890
I17
sVDisplayName
p2891
g55
sVUniFriend
p2892
I0
sVMemberCount
p2893
I0
sVOwnerUin
p2894
I0
sVMemberList
p2895
g51
sVAlias
p2896
g55
sVPYQuanPin
p2897
Vwuyueling
p2898
sVSignature
p2899
V\u6df1\u60c5\u4e0d\u53ca\u4e45\u4f34\uff0c\u539a\u7231\u65e0\u9700\u591a\u8a00\uff01
p2900
sVRemarkPYInitial
p2901
g55
sVContactFlag
p2902
I3
sVUin
p2903
I0
sVNickName
p2904
V\u90ac\u6708\u73b2
p2905
sVAppAccountFlag
p2906
I0
sVVerifyFlag
p2907
I0
sVRemarkPYQuanPin
p2908
g55
sVHeadImgUrl
p2909
V/cgi-bin/mmwebwx-bin/webwxgeticon?seq=683293140&username=@55141f544503ccb62123dd0e65046b6b&skey=@crypt_d5e09b21_f6d4eb8ff700a7cb445282cdd5f699d7
p2910
sVKeyWord
p2911
Vxia
p2912
sVProvince
p2913
V\u5b81\u590f
p2914
sVPYInitial
p2915
VWYL
p2916
sVRemarkName
p2917
g55
sVIsOwner
p2918
I0
sVSex
p2919
I2
sVStarFriend
p2920
I0
sVHideInputBarFlag
p2921
I0
sVChatRoomId
p2922
I0
sVEncryChatRoomId
p2923
g55
sVAttrStatus
p2924
I103461
sVStatues
p2925
I0
stp2926
Rp2927
I1
bag34
(g38
g39
(dp2928
VUserName
p2929
V@8596f4eb59816efaf01ccba071591b5965346d9020920354755ad0e202aff7d5
p2930
sVCity
p2931
V\u9752\u5c9b
p2932
sVSnsFlag
p2933
I17
sVDisplayName
p2934
g55
sVUniFriend
p2935
I0
sVMemberCount
p2936
I0
sVOwnerUin
p2937
I0
sVMemberList
p2938
g51
sVAlias
p2939
g55
sVPYQuanPin
p2940
Vdadadadadabaojian
p2941
sVSignature
p2942
V\u7ed9\u6211\u4e00\u628a\u626b\u5e1a\uff0c\u6211\u80fd\u6253\u626b\u6574\u4e2a\u5730\u7403
p2943
sVRemarkPYInitial
p2944
g55
sVContactFlag
p2945
I1
sVUin
p2946
I0
sVNickName
p2947
V\u5927\u5927\u5927\u5927\u5927\u5b9d\u5065
p2948
sVAppAccountFlag
p2949
I0
sVVerifyFlag
p2950
I0
sVRemarkPYQuanPin
p2951
g55
sVHeadImgUrl
p2952
V/cgi-bin/mmwebwx-bin/webwxgeticon?seq=676060084&username=@8596f4eb59816efaf01ccba071591b5965346d9020920354755ad0e202aff7d5&skey=@crypt_d5e09b21_f6d4eb8ff700a7cb445282cdd5f699d7
p2953
sVKeyWord
p2954
g55
sVProvince
p2955
V\u5c71\u4e1c
p2956
sVPYInitial
p2957
VDDDDDBJ
p2958
sVRemarkName
p2959
g55
sVIsOwner
p2960
I0
sVSex
p2961
I1
sVStarFriend
p2962
I0
sVHideInputBarFlag
p2963
I0
sVChatRoomId
p2964
I0
sVEncryChatRoomId
p2965
g55
sVAttrStatus
p2966
I102439
sVStatues
p2967
I0
stp2968
Rp2969
I1
bag34
(g38
g39
(dp2970
VUserName
p2971
V@3656fd22e1ffe31350d39cdbd3693683676bfda521285e34b0f599ba298c61c5
p2972
sVCity
p2973
g55
sVSnsFlag
p2974
I17
sVDisplayName
p2975
g55
sVUniFriend
p2976
I0
sVMemberCount
p2977
I0
sVOwnerUin
p2978
I0
sVMemberList
p2979
g51
sVAlias
p2980
g55
sVPYQuanPin
p2981
Vhan
p2982
sVSignature
p2983
V\u5c81\u6708\u9759\u597d,\u7b80\u5355\u5c31\u597d\u3002
p2984
sVRemarkPYInitial
p2985
VGCH
p2986
sVContactFlag
p2987
I3
sVUin
p2988
I0
sVNickName
p2989
V\u6db5
p2990
sVAppAccountFlag
p2991
I0
sVVerifyFlag
p2992
I0
sVRemarkPYQuanPin
p2993
Vguochuhan
p2994
sVHeadImgUrl
p2995
V/cgi-bin/mmwebwx-bin/webwxgeticon?seq=683293860&username=@3656fd22e1ffe31350d39cdbd3693683676bfda521285e34b0f599ba298c61c5&skey=@crypt_d5e09b21_f6d4eb8ff700a7cb445282cdd5f699d7
p2996
sVKeyWord
p2997
g55
sVProvince
p2998
g55
sVPYInitial
p2999
g455
sVRemarkName
p3000
V\u90ed\u695a\u6db5
p3001
sVIsOwner
p3002
I0
sVSex
p3003
I2
sVStarFriend
p3004
I0
sVHideInputBarFlag
p3005
I0
sVChatRoomId
p3006
I0
sVEncryChatRoomId
p3007
g55
sVAttrStatus
p3008
I102437
sVStatues
p3009
I0
stp3010
Rp3011
I1
bag34
(g38
g39
(dp3012
VUserName
p3013
V@8c5e90be8df8a189ce774fb244a577a5
p3014
sVCity
p3015
V\u94f6\u5ddd
p3016
sVSnsFlag
p3017
I1
sVDisplayName
p3018
g55
sVUniFriend
p3019
I0
sVMemberCount
p3020
I0
sVOwnerUin
p3021
I0
sVMemberList
p3022
g51
sVAlias
p3023
g55
sVPYQuanPin
p3024
Vyangenban
p3025
sVSignature
p3026
g55
sVRemarkPYInitial
p3027
VNN
p3028
sVContactFlag
p3029
I3
sVUin
p3030
I0
sVNickName
p3031
V\u95eb\u8ddf\u73ed
p3032
sVAppAccountFlag
p3033
I0
sVVerifyFlag
p3034
I0
sVRemarkPYQuanPin
p3035
Vniuniu
p3036
sVHeadImgUrl
p3037
V/cgi-bin/mmwebwx-bin/webwxgeticon?seq=654164018&username=@8c5e90be8df8a189ce774fb244a577a5&skey=@crypt_d5e09b21_f6d4eb8ff700a7cb445282cdd5f699d7
p3038
sVKeyWord
p3039
Vnu3
p3040
sVProvince
p3041
V\u5b81\u590f
p3042
sVPYInitial
p3043
VYGB
p3044
sVRemarkName
p3045
V\u725b\u725b
p3046
sVIsOwner
p3047
I0
sVSex
p3048
I1
sVStarFriend
p3049
I0
sVHideInputBarFlag
p3050
I0
sVChatRoomId
p3051
I0
sVEncryChatRoomId
p3052
g55
sVAttrStatus
p3053
I229477
sVStatues
p3054
I0
stp3055
Rp3056
I1
bag34
(g38
g39
(dp3057
VUserName
p3058
V@4a63b600c5011619a0398726a0175292
p3059
sVCity
p3060
V\u6d4e\u5357
p3061
sVSnsFlag
p3062
I17
sVDisplayName
p3063
g55
sVUniFriend
p3064
I0
sVMemberCount
p3065
I0
sVOwnerUin
p3066
I0
sVMemberList
p3067
g51
sVAlias
p3068
g55
sVPYQuanPin
p3069
Vchen
p3070
sVSignature
p3071
V\u6211\u4eec\u4e0d\u66fe\u8fc8\u51fa\uff0c\u4e0d\u662f\u6ca1\u6709\u9009\u62e9\uff0c\u800c\u662f\u4e0d\u77e5\u5982\u4f55\u6289\u62e9\u3002
p3072
sVRemarkPYInitial
p3073
VWJ
p3074
sVContactFlag
p3075
I1
sVUin
p3076
I0
sVNickName
p3077
V.....\u6c89....
p3078
sVAppAccountFlag
p3079
I0
sVVerifyFlag
p3080
I0
sVRemarkPYQuanPin
p3081
Vwangjian
p3082
sVHeadImgUrl
p3083
V/cgi-bin/mmwebwx-bin/webwxgeticon?seq=683294845&username=@4a63b600c5011619a0398726a0175292&skey=@crypt_d5e09b21_f6d4eb8ff700a7cb445282cdd5f699d7
p3084
sVKeyWord
p3085
VIwa
p3086
sVProvince
p3087
V\u5c71\u4e1c
p3088
sVPYInitial
p3089
g2872
sVRemarkName
p3090
V\u738b\u5251
p3091
sVIsOwner
p3092
I0
sVSex
p3093
I1
sVStarFriend
p3094
I0
sVHideInputBarFlag
p3095
I0
sVChatRoomId
p3096
I0
sVEncryChatRoomId
p3097
g55
sVAttrStatus
p3098
I103615
sVStatues
p3099
I0
stp3100
Rp3101
I1
bag34
(g38
g39
(dp3102
VUserName
p3103
V@6089804809d63d6194b3dcf371a8b46f
p3104
sVCity
p3105
V\u94f6\u5ddd
p3106
sVSnsFlag
p3107
I17
sVDisplayName
p3108
g55
sVUniFriend
p3109
I0
sVMemberCount
p3110
I0
sVOwnerUin
p3111
I0
sVMemberList
p3112
g51
sVAlias
p3113
g55
sVPYQuanPin
p3114
Vxiao
p3115
sVSignature
p3116
VO(\u2229_\u2229)O
p3117
sVRemarkPYInitial
p3118
VWX
p3119
sVContactFlag
p3120
I3
sVUin
p3121
I0
sVNickName
p3122
V\u6f47
p3123
sVAppAccountFlag
p3124
I0
sVVerifyFlag
p3125
I0
sVRemarkPYQuanPin
p3126
Vwangxiao
p3127
sVHeadImgUrl
p3128
V/cgi-bin/mmwebwx-bin/webwxgeticon?seq=683295124&username=@6089804809d63d6194b3dcf371a8b46f&skey=@crypt_d5e09b21_f6d4eb8ff700a7cb445282cdd5f699d7
p3129
sVKeyWord
p3130
Vjia
p3131
sVProvince
p3132
V\u5b81\u590f
p3133
sVPYInitial
p3134
g763
sVRemarkName
p3135
V\u738b\u6f47
p3136
sVIsOwner
p3137
I0
sVSex
p3138
I1
sVStarFriend
p3139
I0
sVHideInputBarFlag
p3140
I0
sVChatRoomId
p3141
I0
sVEncryChatRoomId
p3142
g55
sVAttrStatus
p3143
I104551
sVStatues
p3144
I0
stp3145
Rp3146
I1
bag34
(g38
g39
(dp3147
VUserName
p3148
V@92818472983c0350988223f7fa72120ffbeab631fa5948294b0c4d1a6668f719
p3149
sVCity
p3150
g55
sVSnsFlag
p3151
I17
sVDisplayName
p3152
g55
sVUniFriend
p3153
I0
sVMemberCount
p3154
I0
sVOwnerUin
p3155
I0
sVMemberList
p3156
g51
sVAlias
p3157
g55
sVPYQuanPin
p3158
Vbubaigongzi
p3159
sVSignature
p3160
V\u4f1a\u5f53\u8eab\u7531\u5df1\uff0c\u5a49\u8f6c\u5165\u6c5f\u6e56\u3002\u6b64\u751f\u7adf\u51fa\u53e4\u4eba\u4e0b\uff0c\u6709\u5fd7\u5c1a\u5982\u5e74\u5c11\u65f6\u3002
p3161
sVRemarkPYInitial
p3162
VWG
p3163
sVContactFlag
p3164
I1
sVUin
p3165
I0
sVNickName
p3166
V\u4e0d\u767d\u516c\u5b50
p3167
sVAppAccountFlag
p3168
I0
sVVerifyFlag
p3169
I0
sVRemarkPYQuanPin
p3170
Vwoguang
p3171
sVHeadImgUrl
p3172
V/cgi-bin/mmwebwx-bin/webwxgeticon?seq=683295201&username=@92818472983c0350988223f7fa72120ffbeab631fa5948294b0c4d1a6668f719&skey=@crypt_d5e09b21_f6d4eb8ff700a7cb445282cdd5f699d7
p3173
sVKeyWord
p3174
g55
sVProvince
p3175
g55
sVPYInitial
p3176
VBBGZ
p3177
sVRemarkName
p3178
V\u6211\u5149
p3179
sVIsOwner
p3180
I0
sVSex
p3181
I1
sVStarFriend
p3182
I0
sVHideInputBarFlag
p3183
I0
sVChatRoomId
p3184
I0
sVEncryChatRoomId
p3185
g55
sVAttrStatus
p3186
I16850981
sVStatues
p3187
I0
stp3188
Rp3189
I1
bag34
(g38
g39
(dp3190
VUserName
p3191
V@4af565ceca651b5834a97f92c04a58f2
p3192
sVCity
p3193
V\u6d77\u6dc0
p3194
sVSnsFlag
p3195
I145
sVDisplayName
p3196
g55
sVUniFriend
p3197
I0
sVMemberCount
p3198
I0
sVOwnerUin
p3199
I0
sVMemberList
p3200
g51
sVAlias
p3201
g55
sVPYQuanPin
p3202
Vsanbeiliangzhandanjiu
p3203
sVSignature
p3204
V\u4e09\u676f\u5169\u76de\u6de1\u9152\uff0c\u600e\u6575\u4ed6\uff0c\u665a\u4f86\u98a8\u6025\u3002
p3205
sVRemarkPYInitial
p3206
VOCT
p3207
sVContactFlag
p3208
I3
sVUin
p3209
I0
sVNickName
p3210
V\u309b\u4e09\u676f\u4e24\u76cf\u6de1\u9152\u309d
p3211
sVAppAccountFlag
p3212
I0
sVVerifyFlag
p3213
I0
sVRemarkPYQuanPin
p3214
Voct
p3215
sVHeadImgUrl
p3216
V/cgi-bin/mmwebwx-bin/webwxgeticon?seq=654196230&username=@4af565ceca651b5834a97f92c04a58f2&skey=@crypt_d5e09b21_f6d4eb8ff700a7cb445282cdd5f699d7
p3217
sVKeyWord
p3218
Vzha
p3219
sVProvince
p3220
V\u5317\u4eac
p3221
sVPYInitial
p3222
VSBLZDJ
p3223
sVRemarkName
p3224
Voct
p3225
sVIsOwner
p3226
I0
sVSex
p3227
I1
sVStarFriend
p3228
I0
sVHideInputBarFlag
p3229
I0
sVChatRoomId
p3230
I0
sVEncryChatRoomId
p3231
g55
sVAttrStatus
p3232
I102823
sVStatues
p3233
I0
stp3234
Rp3235
I1
bag34
(g38
g39
(dp3236
VUserName
p3237
V@719abf7e64293461833218a77d473c20c811b7e135f89f5cad068ad64bc1fdc1
p3238
sVCity
p3239
g55
sVSnsFlag
p3240
I17
sVDisplayName
p3241
g55
sVUniFriend
p3242
I0
sVMemberCount
p3243
I0
sVOwnerUin
p3244
I0
sVMemberList
p3245
g51
sVAlias
p3246
g55
sVPYQuanPin
p3247
Vchang
p3248
sVSignature
p3249
V\u5fc3\u7075\u9e21\u6c64
p3250
sVRemarkPYInitial
p3251
VCYJ
p3252
sVContactFlag
p3253
I3
sVUin
p3254
I0
sVNickName
p3255
V\u5e38.
p3256
sVAppAccountFlag
p3257
I0
sVVerifyFlag
p3258
I0
sVRemarkPYQuanPin
p3259
Vchangyajun
p3260
sVHeadImgUrl
p3261
V/cgi-bin/mmwebwx-bin/webwxgeticon?seq=683295645&username=@719abf7e64293461833218a77d473c20c811b7e135f89f5cad068ad64bc1fdc1&skey=@crypt_d5e09b21_f6d4eb8ff700a7cb445282cdd5f699d7
p3262
sVKeyWord
p3263
g55
sVProvince
p3264
VOffaly
p3265
sVPYInitial
p3266
g2872
sVRemarkName
p3267
V\u5e38\u4e9a\u519b
p3268
sVIsOwner
p3269
I0
sVSex
p3270
I1
sVStarFriend
p3271
I0
sVHideInputBarFlag
p3272
I0
sVChatRoomId
p3273
I0
sVEncryChatRoomId
p3274
g55
sVAttrStatus
p3275
I233733
sVStatues
p3276
I0
stp3277
Rp3278
I1
bag34
(g38
g39
(dp3279
VUserName
p3280
V@b8ebe0bf36f6c6d20aed3b6794c1945a661387f7b3a7a36537f4d1e8e38316fa
p3281
sVCity
p3282
V\u94f6\u5ddd
p3283
sVSnsFlag
p3284
I17
sVDisplayName
p3285
g55
sVUniFriend
p3286
I0
sVMemberCount
p3287
I0
sVOwnerUin
p3288
I0
sVMemberList
p3289
g51
sVAlias
p3290
g55
sVPYQuanPin
p3291
Vshenyihui
p3292
sVSignature
p3293
V\u5e73\u51e1\u6216\u8bb8\u4e0d\u5e73\u51e1
p3294
sVRemarkPYInitial
p3295
g55
sVContactFlag
p3296
I3
sVUin
p3297
I0
sVNickName
p3298
V\u6c88\u6bc5\u8f89
p3299
sVAppAccountFlag
p3300
I0
sVVerifyFlag
p3301
I0
sVRemarkPYQuanPin
p3302
g55
sVHeadImgUrl
p3303
V/cgi-bin/mmwebwx-bin/webwxgeticon?seq=683295386&username=@b8ebe0bf36f6c6d20aed3b6794c1945a661387f7b3a7a36537f4d1e8e38316fa&skey=@crypt_d5e09b21_f6d4eb8ff700a7cb445282cdd5f699d7
p3304
sVKeyWord
p3305
Vshe
p3306
sVProvince
p3307
V\u5b81\u590f
p3308
sVPYInitial
p3309
VSYH
p3310
sVRemarkName
p3311
g55
sVIsOwner
p3312
I0
sVSex
p3313
I1
sVStarFriend
p3314
I0
sVHideInputBarFlag
p3315
I0
sVChatRoomId
p3316
I0
sVEncryChatRoomId
p3317
g55
sVAttrStatus
p3318
I4206693
sVStatues
p3319
I0
stp3320
Rp3321
I1
bag34
(g38
g39
(dp3322
VUserName
p3323
V@3a734cf30e892240527b6ea0faa66c77
p3324
sVCity
p3325
V\u6b66\u6c49
p3326
sVSnsFlag
p3327
I49
sVDisplayName
p3328
g55
sVUniFriend
p3329
I0
sVMemberCount
p3330
I0
sVOwnerUin
p3331
I0
sVMemberList
p3332
g51
sVAlias
p3333
g55
sVPYQuanPin
p3334
VLinux
p3335
sVSignature
p3336
V\u54fc\u54fc\u3002\u3002\u3002
p3337
sVRemarkPYInitial
p3338
VXG
p3339
sVContactFlag
p3340
I1
sVUin
p3341
I0
sVNickName
p3342
VLinux
p3343
sVAppAccountFlag
p3344
I0
sVVerifyFlag
p3345
I0
sVRemarkPYQuanPin
p3346
Vxuange
p3347
sVHeadImgUrl
p3348
V/cgi-bin/mmwebwx-bin/webwxgeticon?seq=676074013&username=@3a734cf30e892240527b6ea0faa66c77&skey=@crypt_d5e09b21_f6d4eb8ff700a7cb445282cdd5f699d7
p3349
sVKeyWord
p3350
Vlmx
p3351
sVProvince
p3352
V\u6e56\u5317
p3353
sVPYInitial
p3354
VLINUX
p3355
sVRemarkName
p3356
V\u8f69\u54e5
p3357
sVIsOwner
p3358
I0
sVSex
p3359
I1
sVStarFriend
p3360
I0
sVHideInputBarFlag
p3361
I0
sVChatRoomId
p3362
I0
sVEncryChatRoomId
p3363
g55
sVAttrStatus
p3364
I241767
sVStatues
p3365
I0
stp3366
Rp3367
I1
bag34
(g38
g39
(dp3368
VUserName
p3369
V@231adccf9a6debb345ce254d9828acb48a19fec7fb5a8ad4b59e06e57e62e216
p3370
sVCity
p3371
VLondon
p3372
sVSnsFlag
p3373
I17
sVDisplayName
p3374
g55
sVUniFriend
p3375
I0
sVMemberCount
p3376
I0
sVOwnerUin
p3377
I0
sVMemberList
p3378
g51
sVAlias
p3379
g55
sVPYQuanPin
p3380
VmLiya
p3381
sVSignature
p3382
V\u53ea\u6709\u575a\u5f3a\u52aa\u529b\u7684\u5fc5\u987b\u6df1\u5165\u751f\u6d3b\u624d\u80fd\u83b7\u5f97\u65b0\u5947\u7684\u6548\u679c\u548c\u975e\u540c\u5bfb\u5e38\u7684\u914d\u5408
p3383
sVRemarkPYInitial
p3384
VMLY
p3385
sVContactFlag
p3386
I3
sVUin
p3387
I0
sVNickName
p3388
V\u2606m\u2605Li\u4e9c\u2640
p3389
sVAppAccountFlag
p3390
I0
sVVerifyFlag
p3391
I0
sVRemarkPYQuanPin
p3392
Vmaliya
p3393
sVHeadImgUrl
p3394
V/cgi-bin/mmwebwx-bin/webwxgeticon?seq=683275014&username=@231adccf9a6debb345ce254d9828acb48a19fec7fb5a8ad4b59e06e57e62e216&skey=@crypt_d5e09b21_f6d4eb8ff700a7cb445282cdd5f699d7
p3395
sVKeyWord
p3396
g55
sVProvince
p3397
VEngland
p3398
sVPYInitial
p3399
VMLIY
p3400
sVRemarkName
p3401
V\u9a6c\u8389\u4e9a
p3402
sVIsOwner
p3403
I0
sVSex
p3404
I2
sVStarFriend
p3405
I0
sVHideInputBarFlag
p3406
I0
sVChatRoomId
p3407
I0
sVEncryChatRoomId
p3408
g55
sVAttrStatus
p3409
I104549
sVStatues
p3410
I0
stp3411
Rp3412
I1
bag34
(g38
g39
(dp3413
VUserName
p3414
V@2ffeae0a6241d273be2b97246e2e23a3
p3415
sVCity
p3416
VRochester Hills City
p3417
sVSnsFlag
p3418
I17
sVDisplayName
p3419
g55
sVUniFriend
p3420
I0
sVMemberCount
p3421
I0
sVOwnerUin
p3422
I0
sVMemberList
p3423
g51
sVAlias
p3424
g55
sVPYQuanPin
p3425
VAi
p3426
sVSignature
p3427
V\u5988\u7684\u667a\u969c\u3002
p3428
sVRemarkPYInitial
p3429
VCMS
p3430
sVContactFlag
p3431
I1
sVUin
p3432
I0
sVNickName
p3433
VAi
p3434
sVAppAccountFlag
p3435
I0
sVVerifyFlag
p3436
I0
sVRemarkPYQuanPin
p3437
Vchenminshu
p3438
sVHeadImgUrl
p3439
V/cgi-bin/mmwebwx-bin/webwxgeticon?seq=683296963&username=@2ffeae0a6241d273be2b97246e2e23a3&skey=@crypt_d5e09b21_f6d4eb8ff700a7cb445282cdd5f699d7
p3440
sVKeyWord
p3441
VEin
p3442
sVProvince
p3443
VMichigan
p3444
sVPYInitial
p3445
VAI
p3446
sVRemarkName
p3447
V\u9648\u65fb\u8212
p3448
sVIsOwner
p3449
I0
sVSex
p3450
I2
sVStarFriend
p3451
I0
sVHideInputBarFlag
p3452
I0
sVChatRoomId
p3453
I0
sVEncryChatRoomId
p3454
g55
sVAttrStatus
p3455
I98407
sVStatues
p3456
I0
stp3457
Rp3458
I1
bag34
(g38
g39
(dp3459
VUserName
p3460
V@5129b3978515d783d9f6e91ee961b9d6ce261c7597f340d4bf83f9b8dec29f4b
p3461
sVCity
p3462
V\u9752\u5c9b
p3463
sVSnsFlag
p3464
I17
sVDisplayName
p3465
g55
sVUniFriend
p3466
I0
sVMemberCount
p3467
I0
sVOwnerUin
p3468
I0
sVMemberList
p3469
g51
sVAlias
p3470
g55
sVPYQuanPin
p3471
VTimer
p3472
sVSignature
p3473
g55
sVRemarkPYInitial
p3474
VSZ
p3475
sVContactFlag
p3476
I3
sVUin
p3477
I0
sVNickName
p3478
VTimer
p3479
sVAppAccountFlag
p3480
I0
sVVerifyFlag
p3481
I0
sVRemarkPYQuanPin
p3482
Vshaozhuang
p3483
sVHeadImgUrl
p3484
V/cgi-bin/mmwebwx-bin/webwxgeticon?seq=683297160&username=@5129b3978515d783d9f6e91ee961b9d6ce261c7597f340d4bf83f9b8dec29f4b&skey=@crypt_d5e09b21_f6d4eb8ff700a7cb445282cdd5f699d7
p3485
sVKeyWord
p3486
g55
sVProvince
p3487
V\u5c71\u4e1c
p3488
sVPYInitial
p3489
VTIMER
p3490
sVRemarkName
p3491
V\u5c11\u58ee
p3492
sVIsOwner
p3493
I0
sVSex
p3494
I1
sVStarFriend
p3495
I0
sVHideInputBarFlag
p3496
I0
sVChatRoomId
p3497
I0
sVEncryChatRoomId
p3498
g55
sVAttrStatus
p3499
I103391
sVStatues
p3500
I0
stp3501
Rp3502
I1
bag34
(g38
g39
(dp3503
VUserName
p3504
V@d994a9f8d1fffe6dd91c53c434e45387ceb90caf395a0cfd33a399144893af20
p3505
sVCity
p3506
V\u82cf\u5dde
p3507
sVSnsFlag
p3508
I16
sVDisplayName
p3509
g55
sVUniFriend
p3510
I0
sVMemberCount
p3511
I0
sVOwnerUin
p3512
I0
sVMemberList
p3513
g51
sVAlias
p3514
g55
sVPYQuanPin
p3515
Vxinmu?????
p3516
sVSignature
p3517
V\u54d2\u54d2\u54d2\u2026\u2026~\uff01
p3518
sVRemarkPYInitial
p3519
VR
p3520
sVContactFlag
p3521
I3
sVUin
p3522
I0
sVNickName
p3523
V\u5fc3\u6728\u1d98 \u1d52\u1d25\u1d52\u1d85
p3524
sVAppAccountFlag
p3525
I0
sVVerifyFlag
p3526
I0
sVRemarkPYQuanPin
p3527
Vrou
p3528
sVHeadImgUrl
p3529
V/cgi-bin/mmwebwx-bin/webwxgeticon?seq=683288057&username=@d994a9f8d1fffe6dd91c53c434e45387ceb90caf395a0cfd33a399144893af20&skey=@crypt_d5e09b21_f6d4eb8ff700a7cb445282cdd5f699d7
p3530
sVKeyWord
p3531
g55
sVProvince
p3532
V\u6c5f\u82cf
p3533
sVPYInitial
p3534
VXM?????
p3535
sVRemarkName
p3536
V\u8089
p3537
sVIsOwner
p3538
I0
sVSex
p3539
I2
sVStarFriend
p3540
I0
sVHideInputBarFlag
p3541
I0
sVChatRoomId
p3542
I0
sVEncryChatRoomId
p3543
g55
sVAttrStatus
p3544
I102501
sVStatues
p3545
I0
stp3546
Rp3547
I1
bag34
(g38
g39
(dp3548
VUserName
p3549
V@4043ef381e275be1f8a8ef39a20b93c9
p3550
sVCity
p3551
V\u5e73\u9876\u5c71
p3552
sVSnsFlag
p3553
I49
sVDisplayName
p3554
g55
sVUniFriend
p3555
I0
sVMemberCount
p3556
I0
sVOwnerUin
p3557
I0
sVMemberList
p3558
g51
sVAlias
p3559
g55
sVPYQuanPin
p3560
Vliudaoheng
p3561
sVSignature
p3562
V\u6eda\u52a8\u7684\u77f3\u5934\u4e0d\u957f\u82d4
p3563
sVRemarkPYInitial
p3564
VWS
p3565
sVContactFlag
p3566
I1
sVUin
p3567
I0
sVNickName
p3568
V\u5218\u9053\u6052
p3569
sVAppAccountFlag
p3570
I0
sVVerifyFlag
p3571
I0
sVRemarkPYQuanPin
p3572
Vwosuo
p3573
sVHeadImgUrl
p3574
V/cgi-bin/mmwebwx-bin/webwxgeticon?seq=654155553&username=@4043ef381e275be1f8a8ef39a20b93c9&skey=@crypt_d5e09b21_f6d4eb8ff700a7cb445282cdd5f699d7
p3575
sVKeyWord
p3576
Vliu
p3577
sVProvince
p3578
V\u6cb3\u5357
p3579
sVPYInitial
p3580
VLDH
p3581
sVRemarkName
p3582
V\u6211\u7410
p3583
sVIsOwner
p3584
I0
sVSex
p3585
I1
sVStarFriend
p3586
I0
sVHideInputBarFlag
p3587
I0
sVChatRoomId
p3588
I0
sVEncryChatRoomId
p3589
g55
sVAttrStatus
p3590
I100709
sVStatues
p3591
I0
stp3592
Rp3593
I1
bag34
(g38
g39
(dp3594
VUserName
p3595
V@706baa76de7af0dabf30d81abc867b0bf728a2c7e2a2850ed9c0693eecec4bd2
p3596
sVCity
p3597
g55
sVSnsFlag
p3598
I49
sVDisplayName
p3599
g55
sVUniFriend
p3600
I0
sVMemberCount
p3601
I0
sVOwnerUin
p3602
I0
sVMemberList
p3603
g51
sVAlias
p3604
g55
sVPYQuanPin
p3605
Vtiaowudegafei
p3606
sVSignature
p3607
V\u5b09\u76ae\u7b11\u8138\uff0c\u9762\u5bf9\u4eba\u751f\u7684\u96be
p3608
sVRemarkPYInitial
p3609
VHR
p3610
sVContactFlag
p3611
I3
sVUin
p3612
I0
sVNickName
p3613
V\u8df3\u821e\u7684\u5496\u5561
p3614
sVAppAccountFlag
p3615
I0
sVVerifyFlag
p3616
I0
sVRemarkPYQuanPin
p3617
Vhurong
p3618
sVHeadImgUrl
p3619
V/cgi-bin/mmwebwx-bin/webwxgeticon?seq=683230746&username=@706baa76de7af0dabf30d81abc867b0bf728a2c7e2a2850ed9c0693eecec4bd2&skey=@crypt_d5e09b21_f6d4eb8ff700a7cb445282cdd5f699d7
p3620
sVKeyWord
p3621
g55
sVProvince
p3622
V\u9655\u897f
p3623
sVPYInitial
p3624
VTWDGF
p3625
sVRemarkName
p3626
V\u80e1\u6995
p3627
sVIsOwner
p3628
I0
sVSex
p3629
I2
sVStarFriend
p3630
I0
sVHideInputBarFlag
p3631
I0
sVChatRoomId
p3632
I0
sVEncryChatRoomId
p3633
g55
sVAttrStatus
p3634
I33789989
sVStatues
p3635
I0
stp3636
Rp3637
I1
bag34
(g38
g39
(dp3638
VUserName
p3639
V@64995babc471f20b677ea64ddf8bd7f6
p3640
sVCity
p3641
V\u6d77\u6dc0
p3642
sVSnsFlag
p3643
I49
sVDisplayName
p3644
g55
sVUniFriend
p3645
I0
sVMemberCount
p3646
I0
sVOwnerUin
p3647
I0
sVMemberList
p3648
g51
sVAlias
p3649
g55
sVPYQuanPin
p3650
Vwangxinyu
p3651
sVSignature
p3652
Vbe the last irreplaceable one
p3653
sVRemarkPYInitial
p3654
VMGR
p3655
sVContactFlag
p3656
I1
sVUin
p3657
I0
sVNickName
p3658
V\u738b\u6615\u5b87
p3659
sVAppAccountFlag
p3660
I0
sVVerifyFlag
p3661
I0
sVRemarkPYQuanPin
p3662
Vmengguren
p3663
sVHeadImgUrl
p3664
V/cgi-bin/mmwebwx-bin/webwxgeticon?seq=676073632&username=@64995babc471f20b677ea64ddf8bd7f6&skey=@crypt_d5e09b21_f6d4eb8ff700a7cb445282cdd5f699d7
p3665
sVKeyWord
p3666
VSco
p3667
sVProvince
p3668
V\u5317\u4eac
p3669
sVPYInitial
p3670
VWXY
p3671
sVRemarkName
p3672
V\u8499\u53e4\u4eba
p3673
sVIsOwner
p3674
I0
sVSex
p3675
I1
sVStarFriend
p3676
I0
sVHideInputBarFlag
p3677
I0
sVChatRoomId
p3678
I0
sVEncryChatRoomId
p3679
g55
sVAttrStatus
p3680
I104551
sVStatues
p3681
I0
stp3682
Rp3683
I1
bag34
(g38
g39
(dp3684
VUserName
p3685
V@f4f4fe60c8a547f155ae57c8beaede92
p3686
sVCity
p3687
g55
sVSnsFlag
p3688
I49
sVDisplayName
p3689
g55
sVUniFriend
p3690
I0
sVMemberCount
p3691
I0
sVOwnerUin
p3692
I0
sVMemberList
p3693
g51
sVAlias
p3694
g55
sVPYQuanPin
p3695
Vqilaijixushui
p3696
sVSignature
p3697
g55
sVRemarkPYInitial
p3698
VWXB
p3699
sVContactFlag
p3700
I3
sVUin
p3701
I0
sVNickName
p3702
V\u8d77\u6765\u7ee7\u7eed\u7761
p3703
sVAppAccountFlag
p3704
I0
sVVerifyFlag
p3705
I0
sVRemarkPYQuanPin
p3706
Vwangxiaobo
p3707
sVHeadImgUrl
p3708
V/cgi-bin/mmwebwx-bin/webwxgeticon?seq=683298860&username=@f4f4fe60c8a547f155ae57c8beaede92&skey=@crypt_d5e09b21_f6d4eb8ff700a7cb445282cdd5f699d7
p3709
sVKeyWord
p3710
Vbty
p3711
sVProvince
p3712
g55
sVPYInitial
p3713
VQLJXS
p3714
sVRemarkName
p3715
V\u738b\u6653\u6ce2
p3716
sVIsOwner
p3717
I0
sVSex
p3718
I1
sVStarFriend
p3719
I0
sVHideInputBarFlag
p3720
I0
sVChatRoomId
p3721
I0
sVEncryChatRoomId
p3722
g55
sVAttrStatus
p3723
I104703
sVStatues
p3724
I0
stp3725
Rp3726
I1
bag34
(g38
g39
(dp3727
VUserName
p3728
V@dbac1d41a1a4a1140de0d6e6b2d2b605
p3729
sVCity
p3730
g55
sVSnsFlag
p3731
I49
sVDisplayName
p3732
g55
sVUniFriend
p3733
I0
sVMemberCount
p3734
I0
sVOwnerUin
p3735
I0
sVMemberList
p3736
g51
sVAlias
p3737
g55
sVPYQuanPin
p3738
VMoshiMoshi
p3739
sVSignature
p3740
V\u4e00\u751f\u53ea\u8981\u4e00\u4e2a\u4eba
p3741
sVRemarkPYInitial
p3742
VWT
p3743
sVContactFlag
p3744
I1
sVUin
p3745
I0
sVNickName
p3746
VMoshi Moshi
p3747
sVAppAccountFlag
p3748
I0
sVVerifyFlag
p3749
I0
sVRemarkPYQuanPin
p3750
Vwutiao
p3751
sVHeadImgUrl
p3752
V/cgi-bin/mmwebwx-bin/webwxgeticon?seq=683299006&username=@dbac1d41a1a4a1140de0d6e6b2d2b605&skey=@crypt_d5e09b21_f6d4eb8ff700a7cb445282cdd5f699d7
p3753
sVKeyWord
p3754
Va81
p3755
sVProvince
p3756
g55
sVPYInitial
p3757
VMOSHIMOSHI
p3758
sVRemarkName
p3759
V\u4e94\u6761
p3760
sVIsOwner
p3761
I0
sVSex
p3762
I1
sVStarFriend
p3763
I0
sVHideInputBarFlag
p3764
I0
sVChatRoomId
p3765
I0
sVEncryChatRoomId
p3766
g55
sVAttrStatus
p3767
I98407
sVStatues
p3768
I0
stp3769
Rp3770
I1
bag34
(g38
g39
(dp3771
VUserName
p3772
V@e48c93354c4cb363d27fe7b5cbbef832efc83c6267e1d17267d3cb0e5457a649
p3773
sVCity
p3774
g55
sVSnsFlag
p3775
I49
sVDisplayName
p3776
g55
sVUniFriend
p3777
I0
sVMemberCount
p3778
I0
sVOwnerUin
p3779
I0
sVMemberList
p3780
g51
sVAlias
p3781
g55
sVPYQuanPin
p3782
Vspanclassemojiemoji1f430span
p3783
sVSignature
p3784
VBetter late than never.
p3785
sVRemarkPYInitial
p3786
VFL
p3787
sVContactFlag
p3788
I3
sVUin
p3789
I0
sVNickName
p3790
V\U0001f430
p3791
sVAppAccountFlag
p3792
I0
sVVerifyFlag
p3793
I0
sVRemarkPYQuanPin
p3794
Vfuli
p3795
sVHeadImgUrl
p3796
V/cgi-bin/mmwebwx-bin/webwxgeticon?seq=654185652&username=@e48c93354c4cb363d27fe7b5cbbef832efc83c6267e1d17267d3cb0e5457a649&skey=@crypt_d5e09b21_f6d4eb8ff700a7cb445282cdd5f699d7
p3797
sVKeyWord
p3798
Vfor
p3799
sVProvince
p3800
g55
sVPYInitial
p3801
VSPANCLASSEMOJIEMOJI1F430SPAN
p3802
sVRemarkName
p3803
V\u4ed8\u4e3d
p3804
sVIsOwner
p3805
I0
sVSex
p3806
I2
sVStarFriend
p3807
I0
sVHideInputBarFlag
p3808
I0
sVChatRoomId
p3809
I0
sVEncryChatRoomId
p3810
g55
sVAttrStatus
p3811
I100863
sVStatues
p3812
I0
stp3813
Rp3814
I1
bag34
(g38
g39
(dp3815
VUserName
p3816
V@02f753fafd14d3453ddb538443739655
p3817
sVCity
p3818
V\u94f6\u5ddd
p3819
sVSnsFlag
p3820
I17
sVDisplayName
p3821
g55
sVUniFriend
p3822
I0
sVMemberCount
p3823
I0
sVOwnerUin
p3824
I0
sVMemberList
p3825
g51
sVAlias
p3826
g55
sVPYQuanPin
p3827
V?ling????shang?
p3828
sVSignature
p3829
V\u575a\u5f3a\u662f\u7ed9\u81ea\u5df1\u7684\uff0c\u800c\u575a\u5f3a\u8fc7\u540e\u7684\u7b11\u5bb9\u624d\u662f\u7ed9\u522b\u4eba\u770b\u7684\uff01
p3830
sVRemarkPYInitial
p3831
VJJ
p3832
sVContactFlag
p3833
I3
sVUin
p3834
I0
sVNickName
p3835
V\u261e\u6de9\u0e56\u06e3\u273f\u0e53\u6b87\u0962\u2121
p3836
sVAppAccountFlag
p3837
I0
sVVerifyFlag
p3838
I0
sVRemarkPYQuanPin
p3839
Vjuanjie
p3840
sVHeadImgUrl
p3841
V/cgi-bin/mmwebwx-bin/webwxgeticon?seq=683301144&username=@02f753fafd14d3453ddb538443739655&skey=@crypt_d5e09b21_f6d4eb8ff700a7cb445282cdd5f699d7
p3842
sVKeyWord
p3843
VAme
p3844
sVProvince
p3845
V\u5b81\u590f
p3846
sVPYInitial
p3847
V?L????S?
p3848
sVRemarkName
p3849
V\u5708\u59d0
p3850
sVIsOwner
p3851
I0
sVSex
p3852
I2
sVStarFriend
p3853
I0
sVHideInputBarFlag
p3854
I0
sVChatRoomId
p3855
I0
sVEncryChatRoomId
p3856
g55
sVAttrStatus
p3857
I167975
sVStatues
p3858
I0
stp3859
Rp3860
I1
bag34
(g38
g39
(dp3861
VUserName
p3862
V@e04541207fe60971593e71a18f1dc55c
p3863
sVCity
p3864
VMilwaukee City
p3865
sVSnsFlag
p3866
I49
sVDisplayName
p3867
g55
sVUniFriend
p3868
I0
sVMemberCount
p3869
I0
sVOwnerUin
p3870
I0
sVMemberList
p3871
g51
sVAlias
p3872
g55
sVPYQuanPin
p3873
VYCX00000000
p3874
sVSignature
p3875
V\u6211\u304c\u9b42\u306f \u307e\u3060\u71c3\u3048\u3066\u304a\u3002
p3876
sVRemarkPYInitial
p3877
VWC
p3878
sVContactFlag
p3879
I3
sVUin
p3880
I0
sVNickName
p3881
VYCX00000000
p3882
sVAppAccountFlag
p3883
I0
sVVerifyFlag
p3884
I0
sVRemarkPYQuanPin
p3885
Vwocan
p3886
sVHeadImgUrl
p3887
V/cgi-bin/mmwebwx-bin/webwxgeticon?seq=683282567&username=@e04541207fe60971593e71a18f1dc55c&skey=@crypt_d5e09b21_f6d4eb8ff700a7cb445282cdd5f699d7
p3888
sVKeyWord
p3889
Vsuj
p3890
sVProvince
p3891
VWisconsin
p3892
sVPYInitial
p3893
VYCX00000000
p3894
sVRemarkName
p3895
V\u6211\u707f
p3896
sVIsOwner
p3897
I0
sVSex
p3898
I1
sVStarFriend
p3899
I0
sVHideInputBarFlag
p3900
I0
sVChatRoomId
p3901
I0
sVEncryChatRoomId
p3902
g55
sVAttrStatus
p3903
I72165
sVStatues
p3904
I0
stp3905
Rp3906
I1
bag34
(g38
g39
(dp3907
VUserName
p3908
V@eb50d82ad0a84e573134e659ebd4d7d1c1d92161c95d3f1332ffc0cb70ee6b12
p3909
sVCity
p3910
V\u9752\u5c9b
p3911
sVSnsFlag
p3912
I17
sVDisplayName
p3913
g55
sVUniFriend
p3914
I0
sVMemberCount
p3915
I0
sVOwnerUin
p3916
I0
sVMemberList
p3917
g51
sVAlias
p3918
g55
sVPYQuanPin
p3919
Vtuji
p3920
sVSignature
p3921
g55
sVRemarkPYInitial
p3922
VHF
p3923
sVContactFlag
p3924
I1
sVUin
p3925
I0
sVNickName
p3926
V\u5154\u51e0
p3927
sVAppAccountFlag
p3928
I0
sVVerifyFlag
p3929
I0
sVRemarkPYQuanPin
p3930
Vhanfei
p3931
sVHeadImgUrl
p3932
V/cgi-bin/mmwebwx-bin/webwxgeticon?seq=683291692&username=@eb50d82ad0a84e573134e659ebd4d7d1c1d92161c95d3f1332ffc0cb70ee6b12&skey=@crypt_d5e09b21_f6d4eb8ff700a7cb445282cdd5f699d7
p3933
sVKeyWord
p3934
g55
sVProvince
p3935
V\u5c71\u4e1c
p3936
sVPYInitial
p3937
VTJ
p3938
sVRemarkName
p3939
V\u97e9\u83f2
p3940
sVIsOwner
p3941
I0
sVSex
p3942
I2
sVStarFriend
p3943
I0
sVHideInputBarFlag
p3944
I0
sVChatRoomId
p3945
I0
sVEncryChatRoomId
p3946
g55
sVAttrStatus
p3947
I107623
sVStatues
p3948
I0
stp3949
Rp3950
I1
bag34
(g38
g39
(dp3951
VUserName
p3952
V@6af5365fb797cddaffb8dfc0eea70fe6c27c55b347184bbbed1939b6661d198b
p3953
sVCity
p3954
V\u897f\u5b89
p3955
sVSnsFlag
p3956
I17
sVDisplayName
p3957
g55
sVUniFriend
p3958
I0
sVMemberCount
p3959
I0
sVOwnerUin
p3960
I0
sVMemberList
p3961
g51
sVAlias
p3962
g55
sVPYQuanPin
p3963
Vqianzhangbing
p3964
sVSignature
p3965
V\u4e0d\u601d\u91cf
p3966
sVRemarkPYInitial
p3967
VJWG
p3968
sVContactFlag
p3969
I3
sVUin
p3970
I0
sVNickName
p3971
V\u5343\u4e08\u51b0
p3972
sVAppAccountFlag
p3973
I0
sVVerifyFlag
p3974
I0
sVRemarkPYQuanPin
p3975
Vjingweiguo
p3976
sVHeadImgUrl
p3977
V/cgi-bin/mmwebwx-bin/webwxgeticon?seq=683290198&username=@6af5365fb797cddaffb8dfc0eea70fe6c27c55b347184bbbed1939b6661d198b&skey=@crypt_d5e09b21_f6d4eb8ff700a7cb445282cdd5f699d7
p3978
sVKeyWord
p3979
g55
sVProvince
p3980
V\u9655\u897f
p3981
sVPYInitial
p3982
VQZB
p3983
sVRemarkName
p3984
V\u8346\u536b\u56fd
p3985
sVIsOwner
p3986
I0
sVSex
p3987
I1
sVStarFriend
p3988
I0
sVHideInputBarFlag
p3989
I0
sVChatRoomId
p3990
I0
sVEncryChatRoomId
p3991
g55
sVAttrStatus
p3992
I100577
sVStatues
p3993
I0
stp3994
Rp3995
I1
bag34
(g38
g39
(dp3996
VUserName
p3997
V@aea9e7aba68c4d6313d219ba583bf83dccf40a5abc91acb7f5657e613ebbb8ab
p3998
sVCity
p3999
V\u6d77\u6dc0
p4000
sVSnsFlag
p4001
I49
sVDisplayName
p4002
g55
sVUniFriend
p4003
I0
sVMemberCount
p4004
I0
sVOwnerUin
p4005
I0
sVMemberList
p4006
g51
sVAlias
p4007
g55
sVPYQuanPin
p4008
Vzhaobo
p4009
sVSignature
p4010
g55
sVRemarkPYInitial
p4011
g55
sVContactFlag
p4012
I1
sVUin
p4013
I0
sVNickName
p4014
V\u8d75\u535a
p4015
sVAppAccountFlag
p4016
I0
sVVerifyFlag
p4017
I0
sVRemarkPYQuanPin
p4018
g55
sVHeadImgUrl
p4019
V/cgi-bin/mmwebwx-bin/webwxgeticon?seq=683229799&username=@aea9e7aba68c4d6313d219ba583bf83dccf40a5abc91acb7f5657e613ebbb8ab&skey=@crypt_d5e09b21_f6d4eb8ff700a7cb445282cdd5f699d7
p4020
sVKeyWord
p4021
g55
sVProvince
p4022
V\u5317\u4eac
p4023
sVPYInitial
p4024
VZB
p4025
sVRemarkName
p4026
g55
sVIsOwner
p4027
I0
sVSex
p4028
I1
sVStarFriend
p4029
I0
sVHideInputBarFlag
p4030
I0
sVChatRoomId
p4031
I0
sVEncryChatRoomId
p4032
g55
sVAttrStatus
p4033
I33657957
sVStatues
p4034
I0
stp4035
Rp4036
I1
bag34
(g38
g39
(dp4037
VUserName
p4038
V@7770992fab57abb20423bbec5735c8de4301679bba41691d46f00e9f79b91696
p4039
sVCity
p4040
VEdinburgh
p4041
sVSnsFlag
p4042
I49
sVDisplayName
p4043
g55
sVUniFriend
p4044
I0
sVMemberCount
p4045
I0
sVOwnerUin
p4046
I0
sVMemberList
p4047
g51
sVAlias
p4048
g55
sVPYQuanPin
p4049
Vxueermiaomiaospanclassemojiemoji1f4a4span
p4050
sVSignature
p4051
VThe real world sucks, but u gonna love it.
p4052
sVRemarkPYInitial
p4053
VXMZ
p4054
sVContactFlag
p4055
I1
sVUin
p4056
I0
sVNickName
p4057
V\u96ea\u513f\u55b5\u55b5\U0001f4a4
p4058
sVAppAccountFlag
p4059
I0
sVVerifyFlag
p4060
I0
sVRemarkPYQuanPin
p4061
Vxumengzhen
p4062
sVHeadImgUrl
p4063
V/cgi-bin/mmwebwx-bin/webwxgeticon?seq=683293471&username=@7770992fab57abb20423bbec5735c8de4301679bba41691d46f00e9f79b91696&skey=@crypt_d5e09b21_f6d4eb8ff700a7cb445282cdd5f699d7
p4064
sVKeyWord
p4065
g55
sVProvince
p4066
VScotland
p4067
sVPYInitial
p4068
VXEMMSPANCLASSEMOJIEMOJI1F4A4SPAN
p4069
sVRemarkName
p4070
V\u5f90\u68a6\u796f
p4071
sVIsOwner
p4072
I0
sVSex
p4073
I2
sVStarFriend
p4074
I0
sVHideInputBarFlag
p4075
I0
sVChatRoomId
p4076
I0
sVEncryChatRoomId
p4077
g55
sVAttrStatus
p4078
I100797
sVStatues
p4079
I0
stp4080
Rp4081
I1
bag34
(g38
g39
(dp4082
VUserName
p4083
V@214eb49ee1b8c86182cb2cee420ca56c
p4084
sVCity
p4085
g55
sVSnsFlag
p4086
I177
sVDisplayName
p4087
g55
sVUniFriend
p4088
I0
sVMemberCount
p4089
I0
sVOwnerUin
p4090
I0
sVMemberList
p4091
g51
sVAlias
p4092
g55
sVPYQuanPin
p4093
VAmospanclassemojiemoji1f353span
p4094
sVSignature
p4095
V\u6162\u6162
p4096
sVRemarkPYInitial
p4097
VLYZ
p4098
sVContactFlag
p4099
I1
sVUin
p4100
I0
sVNickName
p4101
VAmo\U0001f353
p4102
sVAppAccountFlag
p4103
I0
sVVerifyFlag
p4104
I0
sVRemarkPYQuanPin
p4105
Vliyizhen
p4106
sVHeadImgUrl
p4107
V/cgi-bin/mmwebwx-bin/webwxgeticon?seq=676050349&username=@214eb49ee1b8c86182cb2cee420ca56c&skey=@crypt_d5e09b21_f6d4eb8ff700a7cb445282cdd5f699d7
p4108
sVKeyWord
p4109
Vsum
p4110
sVProvince
p4111
g55
sVPYInitial
p4112
VAMOSPANCLASSEMOJIEMOJI1F353SPAN
p4113
sVRemarkName
p4114
V\u674e\u4f9d\u771f
p4115
sVIsOwner
p4116
I0
sVSex
p4117
I2
sVStarFriend
p4118
I0
sVHideInputBarFlag
p4119
I0
sVChatRoomId
p4120
I0
sVEncryChatRoomId
p4121
g55
sVAttrStatus
p4122
I99007
sVStatues
p4123
I0
stp4124
Rp4125
I1
bag34
(g38
g39
(dp4126
VUserName
p4127
V@66efa43eb668946751637dbb094f1abd
p4128
sVCity
p4129
V\u94f6\u5ddd
p4130
sVSnsFlag
p4131
I17
sVDisplayName
p4132
g55
sVUniFriend
p4133
I0
sVMemberCount
p4134
I0
sVOwnerUin
p4135
I0
sVMemberList
p4136
g51
sVAlias
p4137
g55
sVPYQuanPin
p4138
Vlixiaojin
p4139
sVSignature
p4140
V\u4e00\u4e2a\u4eba\u5f00\u59cb\u53d8\u5f97\u5b8c\u7f8e\uff0c\u6070\u6070\u662f\u4ece\u4ed6\u613f\u610f\u627f\u8ba4\u81ea\u5df1\u7684\u4e0d\u5b8c\u7f8e\u5f00\u59cb\u7684\u3002
p4141
sVRemarkPYInitial
p4142
g55
sVContactFlag
p4143
I32771
sVUin
p4144
I0
sVNickName
p4145
V\u674e\u5c0f\u747e
p4146
sVAppAccountFlag
p4147
I0
sVVerifyFlag
p4148
I0
sVRemarkPYQuanPin
p4149
g55
sVHeadImgUrl
p4150
V/cgi-bin/mmwebwx-bin/webwxgeticon?seq=683239713&username=@66efa43eb668946751637dbb094f1abd&skey=@crypt_d5e09b21_f6d4eb8ff700a7cb445282cdd5f699d7
p4151
sVKeyWord
p4152
Va38
p4153
sVProvince
p4154
V\u5b81\u590f
p4155
sVPYInitial
p4156
VLXJ
p4157
sVRemarkName
p4158
g55
sVIsOwner
p4159
I0
sVSex
p4160
I2
sVStarFriend
p4161
I0
sVHideInputBarFlag
p4162
I0
sVChatRoomId
p4163
I0
sVEncryChatRoomId
p4164
g55
sVAttrStatus
p4165
I67621
sVStatues
p4166
I0
stp4167
Rp4168
I1
bag34
(g38
g39
(dp4169
VUserName
p4170
V@f317112724fa4753b4fa088d14f9aeeed6581e6127059d541dbea90f00eb5ed7
p4171
sVCity
p4172
V\u676d\u5dde
p4173
sVSnsFlag
p4174
I17
sVDisplayName
p4175
g55
sVUniFriend
p4176
I0
sVMemberCount
p4177
I0
sVOwnerUin
p4178
I0
sVMemberList
p4179
g51
sVAlias
p4180
g55
sVPYQuanPin
p4181
Vgunianghaochi
p4182
sVSignature
p4183
V\u65e0\u804a\u7684\u2026
p4184
sVRemarkPYInitial
p4185
VNN
p4186
sVContactFlag
p4187
I1
sVUin
p4188
I0
sVNickName
p4189
V'\u59d1\u5a18'\uff5e\u597d\u5403\uff5e\uff5e\uff5e
p4190
sVAppAccountFlag
p4191
I0
sVVerifyFlag
p4192
I0
sVRemarkPYQuanPin
p4193
Vniangniang
p4194
sVHeadImgUrl
p4195
V/cgi-bin/mmwebwx-bin/webwxgeticon?seq=683302557&username=@f317112724fa4753b4fa088d14f9aeeed6581e6127059d541dbea90f00eb5ed7&skey=@crypt_d5e09b21_f6d4eb8ff700a7cb445282cdd5f699d7
p4196
sVKeyWord
p4197
g55
sVProvince
p4198
V\u6d59\u6c5f
p4199
sVPYInitial
p4200
VGNHC
p4201
sVRemarkName
p4202
V\u5a18\u5a18
p4203
sVIsOwner
p4204
I0
sVSex
p4205
I1
sVStarFriend
p4206
I0
sVHideInputBarFlag
p4207
I0
sVChatRoomId
p4208
I0
sVEncryChatRoomId
p4209
g55
sVAttrStatus
p4210
I234085
sVStatues
p4211
I0
stp4212
Rp4213
I1
bag34
(g38
g39
(dp4214
VUserName
p4215
V@43658ac0a5858ee5378b0806b94f3b9a
p4216
sVCity
p4217
V\u6df1\u5733
p4218
sVSnsFlag
p4219
I49
sVDisplayName
p4220
g55
sVUniFriend
p4221
I0
sVMemberCount
p4222
I0
sVOwnerUin
p4223
I0
sVMemberList
p4224
g51
sVAlias
p4225
g55
sVPYQuanPin
p4226
VPochyspanclassemojiemoji1f373span
p4227
sVSignature
p4228
V \u613f\u65e0\u5c81\u6708\u53ef\u56de\u5934
p4229
sVRemarkPYInitial
p4230
VGPC
p4231
sVContactFlag
p4232
I1
sVUin
p4233
I0
sVNickName
p4234
VPochy\U0001f373
p4235
sVAppAccountFlag
p4236
I0
sVVerifyFlag
p4237
I0
sVRemarkPYQuanPin
p4238
Vguopengcheng
p4239
sVHeadImgUrl
p4240
V/cgi-bin/mmwebwx-bin/webwxgeticon?seq=683294591&username=@43658ac0a5858ee5378b0806b94f3b9a&skey=@crypt_d5e09b21_f6d4eb8ff700a7cb445282cdd5f699d7
p4241
sVKeyWord
p4242
VMaG
p4243
sVProvince
p4244
V\u5e7f\u4e1c
p4245
sVPYInitial
p4246
VPOCHYSPANCLASSEMOJIEMOJI1F373SPAN
p4247
sVRemarkName
p4248
V\u90ed\u9e4f\u7a0b
p4249
sVIsOwner
p4250
I0
sVSex
p4251
I1
sVStarFriend
p4252
I0
sVHideInputBarFlag
p4253
I0
sVChatRoomId
p4254
I0
sVEncryChatRoomId
p4255
g55
sVAttrStatus
p4256
I102503
sVStatues
p4257
I0
stp4258
Rp4259
I1
bag34
(g38
g39
(dp4260
VUserName
p4261
V@0e8b26e4492e82b2462204c6b777f74e
p4262
sVCity
p4263
V\u94f6\u5ddd
p4264
sVSnsFlag
p4265
I177
sVDisplayName
p4266
g55
sVUniFriend
p4267
I0
sVMemberCount
p4268
I0
sVOwnerUin
p4269
I0
sVMemberList
p4270
g51
sVAlias
p4271
g55
sVPYQuanPin
p4272
Vwenwenwenwenwenwennuan
p4273
sVSignature
p4274
V9\u5c81\u5c0f\u592a\u9633\uff0cyeah\uff01
p4275
sVRemarkPYInitial
p4276
VJM
p4277
sVContactFlag
p4278
I1
sVUin
p4279
I0
sVNickName
p4280
V_\u6e29\u6e29\u6e29\u6e29\u6e29\u6e29\u6696\u3002
p4281
sVAppAccountFlag
p4282
I0
sVVerifyFlag
p4283
I0
sVRemarkPYQuanPin
p4284
Vjiangming
p4285
sVHeadImgUrl
p4286
V/cgi-bin/mmwebwx-bin/webwxgeticon?seq=683265593&username=@0e8b26e4492e82b2462204c6b777f74e&skey=@crypt_d5e09b21_f6d4eb8ff700a7cb445282cdd5f699d7
p4287
sVKeyWord
p4288
Vjia
p4289
sVProvince
p4290
V\u5b81\u590f
p4291
sVPYInitial
p4292
VWWWWWWN
p4293
sVRemarkName
p4294
V\u59dc\u94ed
p4295
sVIsOwner
p4296
I0
sVSex
p4297
I2
sVStarFriend
p4298
I0
sVHideInputBarFlag
p4299
I0
sVChatRoomId
p4300
I0
sVEncryChatRoomId
p4301
g55
sVAttrStatus
p4302
I33656423
sVStatues
p4303
I0
stp4304
Rp4305
I1
bag34
(g38
g39
(dp4306
VUserName
p4307
V@c24006518038efa9d0757f41dc55b27e9aa64e233ec5d39b9c4a7fd76f50c3f9
p4308
sVCity
p4309
g55
sVSnsFlag
p4310
I0
sVDisplayName
p4311
g55
sVUniFriend
p4312
I0
sVMemberCount
p4313
I0
sVOwnerUin
p4314
I0
sVMemberList
p4315
g51
sVAlias
p4316
g55
sVPYQuanPin
p4317
VSetapai
p4318
sVSignature
p4319
V\u4f60\u6240\u89c1\u5373\u6211
p4320
sVRemarkPYInitial
p4321
g1220
sVContactFlag
p4322
I1
sVUin
p4323
I0
sVNickName
p4324
VSetapai-
p4325
sVAppAccountFlag
p4326
I0
sVVerifyFlag
p4327
I0
sVRemarkPYQuanPin
p4328
Vyu
p4329
sVHeadImgUrl
p4330
V/cgi-bin/mmwebwx-bin/webwxgeticon?seq=683303355&username=@c24006518038efa9d0757f41dc55b27e9aa64e233ec5d39b9c4a7fd76f50c3f9&skey=@crypt_d5e09b21_f6d4eb8ff700a7cb445282cdd5f699d7
p4331
sVKeyWord
p4332
g55
sVProvince
p4333
g55
sVPYInitial
p4334
VSETAPAI
p4335
sVRemarkName
p4336
V\u7389
p4337
sVIsOwner
p4338
I0
sVSex
p4339
I1
sVStarFriend
p4340
I0
sVHideInputBarFlag
p4341
I0
sVChatRoomId
p4342
I0
sVEncryChatRoomId
p4343
g55
sVAttrStatus
p4344
I137253
sVStatues
p4345
I0
stp4346
Rp4347
I1
bag34
(g38
g39
(dp4348
VUserName
p4349
V@1a46fcb86f288715d60cee1e5c62cf4c
p4350
sVCity
p4351
V\u9752\u5c9b
p4352
sVSnsFlag
p4353
I145
sVDisplayName
p4354
g55
sVUniFriend
p4355
I0
sVMemberCount
p4356
I0
sVOwnerUin
p4357
I0
sVMemberList
p4358
g51
sVAlias
p4359
g55
sVPYQuanPin
p4360
Vbiran
p4361
sVSignature
p4362
V18560607368
p4363
sVRemarkPYInitial
p4364
VBJY
p4365
sVContactFlag
p4366
I1
sVUin
p4367
I0
sVNickName
p4368
V\u6bd5\u7136
p4369
sVAppAccountFlag
p4370
I0
sVVerifyFlag
p4371
I0
sVRemarkPYQuanPin
p4372
Vbijunyang
p4373
sVHeadImgUrl
p4374
V/cgi-bin/mmwebwx-bin/webwxgeticon?seq=683304275&username=@1a46fcb86f288715d60cee1e5c62cf4c&skey=@crypt_d5e09b21_f6d4eb8ff700a7cb445282cdd5f699d7
p4375
sVKeyWord
p4376
Vouc
p4377
sVProvince
p4378
V\u5c71\u4e1c
p4379
sVPYInitial
p4380
VBR
p4381
sVRemarkName
p4382
V\u6bd5\u519b\u9633
p4383
sVIsOwner
p4384
I0
sVSex
p4385
I1
sVStarFriend
p4386
I0
sVHideInputBarFlag
p4387
I0
sVChatRoomId
p4388
I0
sVEncryChatRoomId
p4389
g55
sVAttrStatus
p4390
I237821
sVStatues
p4391
I0
stp4392
Rp4393
I1
bag34
(g38
g39
(dp4394
VUserName
p4395
V@2fce8f6a71a90b10886bdc25538364204ccb89cd2fa3294aba5303eabf680112
p4396
sVCity
p4397
V\u94f6\u5ddd
p4398
sVSnsFlag
p4399
I49
sVDisplayName
p4400
g55
sVUniFriend
p4401
I0
sVMemberCount
p4402
I0
sVOwnerUin
p4403
I0
sVMemberList
p4404
g51
sVAlias
p4405
g55
sVPYQuanPin
p4406
Vzhangxinyue
p4407
sVSignature
p4408
V\u624b\u673a\u53f715009615840
p4409
sVRemarkPYInitial
p4410
VZXY
p4411
sVContactFlag
p4412
I1
sVUin
p4413
I0
sVNickName
p4414
V\u5f20\u6b23\u73a5
p4415
sVAppAccountFlag
p4416
I0
sVVerifyFlag
p4417
I0
sVRemarkPYQuanPin
p4418
Vzhangxinyue
p4419
sVHeadImgUrl
p4420
V/cgi-bin/mmwebwx-bin/webwxgeticon?seq=683252180&username=@2fce8f6a71a90b10886bdc25538364204ccb89cd2fa3294aba5303eabf680112&skey=@crypt_d5e09b21_f6d4eb8ff700a7cb445282cdd5f699d7
p4421
sVKeyWord
p4422
g55
sVProvince
p4423
V\u5b81\u590f
p4424
sVPYInitial
p4425
VZXY
p4426
sVRemarkName
p4427
V\u5f20\u6b23\u73a5
p4428
sVIsOwner
p4429
I0
sVSex
p4430
I2
sVStarFriend
p4431
I0
sVHideInputBarFlag
p4432
I0
sVChatRoomId
p4433
I0
sVEncryChatRoomId
p4434
g55
sVAttrStatus
p4435
I104549
sVStatues
p4436
I0
stp4437
Rp4438
I1
bag34
(g38
g39
(dp4439
VUserName
p4440
V@baf6734a944ba8c8dc20dac8cd88ae3b29a9ef98a474d1a86e9adff23cd65297
p4441
sVCity
p4442
g55
sVSnsFlag
p4443
I17
sVDisplayName
p4444
g55
sVUniFriend
p4445
I0
sVMemberCount
p4446
I0
sVOwnerUin
p4447
I0
sVMemberList
p4448
g51
sVAlias
p4449
g55
sVPYQuanPin
p4450
Vdong
p4451
sVSignature
p4452
g55
sVRemarkPYInitial
p4453
VMXD
p4454
sVContactFlag
p4455
I3
sVUin
p4456
I0
sVNickName
p4457
V\u4e1c
p4458
sVAppAccountFlag
p4459
I0
sVVerifyFlag
p4460
I0
sVRemarkPYQuanPin
p4461
Vmaxiaodong
p4462
sVHeadImgUrl
p4463
V/cgi-bin/mmwebwx-bin/webwxgeticon?seq=683304480&username=@baf6734a944ba8c8dc20dac8cd88ae3b29a9ef98a474d1a86e9adff23cd65297&skey=@crypt_d5e09b21_f6d4eb8ff700a7cb445282cdd5f699d7
p4464
sVKeyWord
p4465
g55
sVProvince
p4466
g55
sVPYInitial
p4467
VD
p4468
sVRemarkName
p4469
V\u9a6c\u6653\u4e1c
p4470
sVIsOwner
p4471
I0
sVSex
p4472
I1
sVStarFriend
p4473
I0
sVHideInputBarFlag
p4474
I0
sVChatRoomId
p4475
I0
sVEncryChatRoomId
p4476
g55
sVAttrStatus
p4477
I104485
sVStatues
p4478
I0
stp4479
Rp4480
I1
bag34
(g38
g39
(dp4481
VUserName
p4482
V@e1df006ee9c3ee01ac63d58c2b51331e463d0fed3df0c955fb36948c140e672e
p4483
sVCity
p4484
g55
sVSnsFlag
p4485
I1
sVDisplayName
p4486
g55
sVUniFriend
p4487
I0
sVMemberCount
p4488
I0
sVOwnerUin
p4489
I0
sVMemberList
p4490
g51
sVAlias
p4491
g55
sVPYQuanPin
p4492
Vdoufuxinspanclassemojiemoji2b50span
p4493
sVSignature
p4494
V\u6211\u6068\u81ea\u5df1\u662f\u4e2a\u6015\u5b64\u72ec\u7684\u4eba\uff0c\u5374\u53c8\u7231\u4e0a\u4e86\u81ea\u7531\u81ea\u5728\u7684\u7075\u9b42\u3002
p4495
sVRemarkPYInitial
p4496
VZQR
p4497
sVContactFlag
p4498
I3
sVUin
p4499
I0
sVNickName
p4500
V\u8c46\u8150\u5fc3\u2b50
p4501
sVAppAccountFlag
p4502
I0
sVVerifyFlag
p4503
I0
sVRemarkPYQuanPin
p4504
Vzhouqianru
p4505
sVHeadImgUrl
p4506
V/cgi-bin/mmwebwx-bin/webwxgeticon?seq=683252766&username=@e1df006ee9c3ee01ac63d58c2b51331e463d0fed3df0c955fb36948c140e672e&skey=@crypt_d5e09b21_f6d4eb8ff700a7cb445282cdd5f699d7
p4507
sVKeyWord
p4508
g55
sVProvince
p4509
g55
sVPYInitial
p4510
VDFXSPANCLASSEMOJIEMOJI2B50SPAN
p4511
sVRemarkName
p4512
V\u5468\u5029\u8339
p4513
sVIsOwner
p4514
I0
sVSex
p4515
I2
sVStarFriend
p4516
I0
sVHideInputBarFlag
p4517
I0
sVChatRoomId
p4518
I0
sVEncryChatRoomId
p4519
g55
sVAttrStatus
p4520
I102501
sVStatues
p4521
I0
stp4522
Rp4523
I1
bag34
(g38
g39
(dp4524
VUserName
p4525
V@c257cc49e6397310bb1e2c3c765675d9d4288b6f11d4b350c2fd7a96d4f3bbe9
p4526
sVCity
p4527
V\u77f3\u5634\u5c71
p4528
sVSnsFlag
p4529
I17
sVDisplayName
p4530
g55
sVUniFriend
p4531
I0
sVMemberCount
p4532
I0
sVOwnerUin
p4533
I0
sVMemberList
p4534
g51
sVAlias
p4535
g55
sVPYQuanPin
p4536
V00
p4537
sVSignature
p4538
V\u5fd8\u8bb0\u597d\u96be
p4539
sVRemarkPYInitial
p4540
VMX
p4541
sVContactFlag
p4542
I3
sVUin
p4543
I0
sVNickName
p4544
V0.0
p4545
sVAppAccountFlag
p4546
I0
sVVerifyFlag
p4547
I0
sVRemarkPYQuanPin
p4548
Vmaxiao
p4549
sVHeadImgUrl
p4550
V/cgi-bin/mmwebwx-bin/webwxgeticon?seq=683282036&username=@c257cc49e6397310bb1e2c3c765675d9d4288b6f11d4b350c2fd7a96d4f3bbe9&skey=@crypt_d5e09b21_f6d4eb8ff700a7cb445282cdd5f699d7
p4551
sVKeyWord
p4552
g55
sVProvince
p4553
V\u5b81\u590f
p4554
sVPYInitial
p4555
V00
p4556
sVRemarkName
p4557
V\u9a6c\u5578
p4558
sVIsOwner
p4559
I0
sVSex
p4560
I1
sVStarFriend
p4561
I0
sVHideInputBarFlag
p4562
I0
sVChatRoomId
p4563
I0
sVEncryChatRoomId
p4564
g55
sVAttrStatus
p4565
I4133
sVStatues
p4566
I0
stp4567
Rp4568
I1
bag34
(g38
g39
(dp4569
VUserName
p4570
V@e11259156adf4bae069145777f59043a33ff625c5fe97d22d9a0ba43da706225
p4571
sVCity
p4572
g55
sVSnsFlag
p4573
I17
sVDisplayName
p4574
g55
sVUniFriend
p4575
I0
sVMemberCount
p4576
I0
sVOwnerUin
p4577
I0
sVMemberList
p4578
g51
sVAlias
p4579
g55
sVPYQuanPin
p4580
Vfeng
p4581
sVSignature
p4582
V\u968f\u9047\u800c\u5b89
p4583
sVRemarkPYInitial
p4584
VGF
p4585
sVContactFlag
p4586
I1
sVUin
p4587
I0
sVNickName
p4588
V\u98ce
p4589
sVAppAccountFlag
p4590
I0
sVVerifyFlag
p4591
I0
sVRemarkPYQuanPin
p4592
Vgufu
p4593
sVHeadImgUrl
p4594
V/cgi-bin/mmwebwx-bin/webwxgeticon?seq=683304962&username=@e11259156adf4bae069145777f59043a33ff625c5fe97d22d9a0ba43da706225&skey=@crypt_d5e09b21_f6d4eb8ff700a7cb445282cdd5f699d7
p4595
sVKeyWord
p4596
g55
sVProvince
p4597
g55
sVPYInitial
p4598
VF
p4599
sVRemarkName
p4600
V\u59d1\u7236
p4601
sVIsOwner
p4602
I0
sVSex
p4603
I1
sVStarFriend
p4604
I0
sVHideInputBarFlag
p4605
I0
sVChatRoomId
p4606
I0
sVEncryChatRoomId
p4607
g55
sVAttrStatus
p4608
I4965
sVStatues
p4609
I0
stp4610
Rp4611
I1
bag34
(g38
g39
(dp4612
VUserName
p4613
V@f5b1c38772873deca6c7911a51ef6212
p4614
sVCity
p4615
VSunnyvale City
p4616
sVSnsFlag
p4617
I49
sVDisplayName
p4618
g55
sVUniFriend
p4619
I0
sVMemberCount
p4620
I0
sVOwnerUin
p4621
I0
sVMemberList
p4622
g51
sVAlias
p4623
g55
sVPYQuanPin
p4624
Vjiangyunan
p4625
sVSignature
p4626
VYoung is heart .
p4627
sVRemarkPYInitial
p4628
VDS
p4629
sVContactFlag
p4630
I3
sVUin
p4631
I0
sVNickName
p4632
V\u848b\u96e8\u6960
p4633
sVAppAccountFlag
p4634
I0
sVVerifyFlag
p4635
I0
sVRemarkPYQuanPin
p4636
Vdashi
p4637
sVHeadImgUrl
p4638
V/cgi-bin/mmwebwx-bin/webwxgeticon?seq=683304973&username=@f5b1c38772873deca6c7911a51ef6212&skey=@crypt_d5e09b21_f6d4eb8ff700a7cb445282cdd5f699d7
p4639
sVKeyWord
p4640
Vjia
p4641
sVProvince
p4642
VCalifornia
p4643
sVPYInitial
p4644
VJYN
p4645
sVRemarkName
p4646
V\u5927\u4e16
p4647
sVIsOwner
p4648
I0
sVSex
p4649
I1
sVStarFriend
p4650
I0
sVHideInputBarFlag
p4651
I0
sVChatRoomId
p4652
I0
sVEncryChatRoomId
p4653
g55
sVAttrStatus
p4654
L2151770407L
sVStatues
p4655
I0
stp4656
Rp4657
I1
bag34
(g38
g39
(dp4658
VUserName
p4659
V@9a5ef5432f85ce9d6a7788e9a7f8f65b8890328e481271861f57b0ca7b0608f4
p4660
sVCity
p4661
V\u94f6\u5ddd
p4662
sVSnsFlag
p4663
I49
sVDisplayName
p4664
g55
sVUniFriend
p4665
I0
sVMemberCount
p4666
I0
sVOwnerUin
p4667
I0
sVMemberList
p4668
g51
sVAlias
p4669
g55
sVPYQuanPin
p4670
Vspanclassemojiemoji1f343spantiantiantianya
p4671
sVSignature
p4672
V\u90fd\u662f\u5c0f\u4eba\u7269\uff0c\u5c31\u522b\u8bf4\u4ec0\u4e48\u5927\u8bdd\u3002\U0001f4f5
p4673
sVRemarkPYInitial
p4674
VZXT
p4675
sVContactFlag
p4676
I1
sVUin
p4677
I0
sVNickName
p4678
V\U0001f343   \u751c\u751c\u751c\u5440\u3002
p4679
sVAppAccountFlag
p4680
I0
sVVerifyFlag
p4681
I0
sVRemarkPYQuanPin
p4682
Vzhangxiaotian
p4683
sVHeadImgUrl
p4684
V/cgi-bin/mmwebwx-bin/webwxgeticon?seq=683052654&username=@9a5ef5432f85ce9d6a7788e9a7f8f65b8890328e481271861f57b0ca7b0608f4&skey=@crypt_d5e09b21_f6d4eb8ff700a7cb445282cdd5f699d7
p4685
sVKeyWord
p4686
Vzha
p4687
sVProvince
p4688
V\u5b81\u590f
p4689
sVPYInitial
p4690
VSPANCLASSEMOJIEMOJI1F343SPANTTTY
p4691
sVRemarkName
p4692
V\u5f20\u5c0f\u751c
p4693
sVIsOwner
p4694
I0
sVSex
p4695
I2
sVStarFriend
p4696
I0
sVHideInputBarFlag
p4697
I0
sVChatRoomId
p4698
I0
sVEncryChatRoomId
p4699
g55
sVAttrStatus
p4700
I79031
sVStatues
p4701
I0
stp4702
Rp4703
I1
bag34
(g38
g39
(dp4704
VUserName
p4705
V@ec215e2dfbfe82fe45d8f484a5c4d669
p4706
sVCity
p4707
V\u94f6\u5ddd
p4708
sVSnsFlag
p4709
I17
sVDisplayName
p4710
g55
sVUniFriend
p4711
I0
sVMemberCount
p4712
I0
sVOwnerUin
p4713
I0
sVMemberList
p4714
g51
sVAlias
p4715
g55
sVPYQuanPin
p4716
Vyuchenjun
p4717
sVSignature
p4718
V\u6d41  \u6d6a
p4719
sVRemarkPYInitial
p4720
VQW
p4721
sVContactFlag
p4722
I1
sVUin
p4723
I0
sVNickName
p4724
V\u6631\u81e3\u541b
p4725
sVAppAccountFlag
p4726
I0
sVVerifyFlag
p4727
I0
sVRemarkPYQuanPin
p4728
Vqiuwang
p4729
sVHeadImgUrl
p4730
V/cgi-bin/mmwebwx-bin/webwxgeticon?seq=683271629&username=@ec215e2dfbfe82fe45d8f484a5c4d669&skey=@crypt_d5e09b21_f6d4eb8ff700a7cb445282cdd5f699d7
p4731
sVKeyWord
p4732
VC_c
p4733
sVProvince
p4734
V\u5b81\u590f
p4735
sVPYInitial
p4736
VYCJ
p4737
sVRemarkName
p4738
V\u7403\u738b
p4739
sVIsOwner
p4740
I0
sVSex
p4741
I1
sVStarFriend
p4742
I0
sVHideInputBarFlag
p4743
I0
sVChatRoomId
p4744
I0
sVEncryChatRoomId
p4745
g55
sVAttrStatus
p4746
I102631
sVStatues
p4747
I0
stp4748
Rp4749
I1
bag34
(g38
g39
(dp4750
VUserName
p4751
V@2eb61c6746d3f135f20846ececc91e78
p4752
sVCity
p4753
g55
sVSnsFlag
p4754
I49
sVDisplayName
p4755
g55
sVUniFriend
p4756
I0
sVMemberCount
p4757
I0
sVOwnerUin
p4758
I0
sVMemberList
p4759
g51
sVAlias
p4760
g55
sVPYQuanPin
p4761
VGioia
p4762
sVSignature
p4763
V\u81ea\u7136\uff0c\u8212\u5fc3\uff0c\u5927\u6c14\u3002
p4764
sVRemarkPYInitial
p4765
VDL
p4766
sVContactFlag
p4767
I1
sVUin
p4768
I0
sVNickName
p4769
VGioia
p4770
sVAppAccountFlag
p4771
I0
sVVerifyFlag
p4772
I0
sVRemarkPYQuanPin
p4773
Vdalian
p4774
sVHeadImgUrl
p4775
V/cgi-bin/mmwebwx-bin/webwxgeticon?seq=683305053&username=@2eb61c6746d3f135f20846ececc91e78&skey=@crypt_d5e09b21_f6d4eb8ff700a7cb445282cdd5f699d7
p4776
sVKeyWord
p4777
Vmag
p4778
sVProvince
p4779
VDessau
p4780
sVPYInitial
p4781
VGIOIA
p4782
sVRemarkName
p4783
V\u5927\u8138
p4784
sVIsOwner
p4785
I0
sVSex
p4786
I2
sVStarFriend
p4787
I0
sVHideInputBarFlag
p4788
I0
sVChatRoomId
p4789
I0
sVEncryChatRoomId
p4790
g55
sVAttrStatus
p4791
I231423
sVStatues
p4792
I0
stp4793
Rp4794
I1
bag34
(g38
g39
(dp4795
VUserName
p4796
V@f4488dc2ed1474aafb45d4846817ff9d
p4797
sVCity
p4798
V\u5f90\u6c47
p4799
sVSnsFlag
p4800
I17
sVDisplayName
p4801
g55
sVUniFriend
p4802
I0
sVMemberCount
p4803
I0
sVOwnerUin
p4804
I0
sVMemberList
p4805
g51
sVAlias
p4806
g55
sVPYQuanPin
p4807
VCharles
p4808
sVSignature
p4809
g55
sVRemarkPYInitial
p4810
VQMM
p4811
sVContactFlag
p4812
I5
sVUin
p4813
I0
sVNickName
p4814
VCharles
p4815
sVAppAccountFlag
p4816
I0
sVVerifyFlag
p4817
I0
sVRemarkPYQuanPin
p4818
Vqiangmeimei
p4819
sVHeadImgUrl
p4820
V/cgi-bin/mmwebwx-bin/webwxgeticon?seq=683281857&username=@f4488dc2ed1474aafb45d4846817ff9d&skey=@crypt_d5e09b21_f6d4eb8ff700a7cb445282cdd5f699d7
p4821
sVKeyWord
p4822
VThe
p4823
sVProvince
p4824
V\u4e0a\u6d77
p4825
sVPYInitial
p4826
VCHARLES
p4827
sVRemarkName
p4828
V\u5f3a\u59b9\u59b9
p4829
sVIsOwner
p4830
I0
sVSex
p4831
I1
sVStarFriend
p4832
I0
sVHideInputBarFlag
p4833
I0
sVChatRoomId
p4834
I0
sVEncryChatRoomId
p4835
g55
sVAttrStatus
p4836
I16885173
sVStatues
p4837
I0
stp4838
Rp4839
I1
bag34
(g38
g39
(dp4840
VUserName
p4841
V@9c7bee318986e08aedbba612f46ce409
p4842
sVCity
p4843
V\u5357\u4eac
p4844
sVSnsFlag
p4845
I177
sVDisplayName
p4846
g55
sVUniFriend
p4847
I0
sVMemberCount
p4848
I0
sVOwnerUin
p4849
I0
sVMemberList
p4850
g51
sVAlias
p4851
g55
sVPYQuanPin
p4852
VScarlett
p4853
sVSignature
p4854
V\u6709\u7406\u60f3\u6709\u60c5\u6000\u6709\u6b32\u671b\u3002
p4855
sVRemarkPYInitial
p4856
VWSJ
p4857
sVContactFlag
p4858
I1
sVUin
p4859
I0
sVNickName
p4860
VScarlett
p4861
sVAppAccountFlag
p4862
I0
sVVerifyFlag
p4863
I0
sVRemarkPYQuanPin
p4864
Vwangsaijia
p4865
sVHeadImgUrl
p4866
V/cgi-bin/mmwebwx-bin/webwxgeticon?seq=683305678&username=@9c7bee318986e08aedbba612f46ce409&skey=@crypt_d5e09b21_f6d4eb8ff700a7cb445282cdd5f699d7
p4867
sVKeyWord
p4868
Vhel
p4869
sVProvince
p4870
V\u6c5f\u82cf
p4871
sVPYInitial
p4872
VSCARLETT
p4873
sVRemarkName
p4874
V\u738b\u601d\u5609
p4875
sVIsOwner
p4876
I0
sVSex
p4877
I2
sVStarFriend
p4878
I0
sVHideInputBarFlag
p4879
I0
sVChatRoomId
p4880
I0
sVEncryChatRoomId
p4881
g55
sVAttrStatus
p4882
I99623
sVStatues
p4883
I0
stp4884
Rp4885
I1
bag34
(g38
g39
(dp4886
VUserName
p4887
V@1e66727b36cd8d7ef7d0e30fb4fb78cd
p4888
sVCity
p4889
g55
sVSnsFlag
p4890
I17
sVDisplayName
p4891
g55
sVUniFriend
p4892
I0
sVMemberCount
p4893
I0
sVOwnerUin
p4894
I0
sVMemberList
p4895
g51
sVAlias
p4896
g55
sVPYQuanPin
p4897
Vjiaowozhangdapanzi
p4898
sVSignature
p4899
g55
sVRemarkPYInitial
p4900
VZT
p4901
sVContactFlag
p4902
I3
sVUin
p4903
I0
sVNickName
p4904
V\u53eb\u6211\u5f20\u5927\u80d6\u5b50
p4905
sVAppAccountFlag
p4906
I0
sVVerifyFlag
p4907
I0
sVRemarkPYQuanPin
p4908
Vzhangtong
p4909
sVHeadImgUrl
p4910
V/cgi-bin/mmwebwx-bin/webwxgeticon?seq=683305754&username=@1e66727b36cd8d7ef7d0e30fb4fb78cd&skey=@crypt_d5e09b21_f6d4eb8ff700a7cb445282cdd5f699d7
p4911
sVKeyWord
p4912
Vzt1
p4913
sVProvince
p4914
g55
sVPYInitial
p4915
VJWZDPZ
p4916
sVRemarkName
p4917
V\u5f20\u6850
p4918
sVIsOwner
p4919
I0
sVSex
p4920
I1
sVStarFriend
p4921
I0
sVHideInputBarFlag
p4922
I0
sVChatRoomId
p4923
I0
sVEncryChatRoomId
p4924
g55
sVAttrStatus
p4925
I33591781
sVStatues
p4926
I0
stp4927
Rp4928
I1
bag34
(g38
g39
(dp4929
VUserName
p4930
V@37fa51b1566639e9a172f8460e4cdb3f
p4931
sVCity
p4932
V\u94f6\u5ddd
p4933
sVSnsFlag
p4934
I17
sVDisplayName
p4935
g55
sVUniFriend
p4936
I0
sVMemberCount
p4937
I0
sVOwnerUin
p4938
I0
sVMemberList
p4939
g51
sVAlias
p4940
g55
sVPYQuanPin
p4941
VEvan
p4942
sVSignature
p4943
V\u5c11\u5e74\u8d1f\u58ee\u6c14\uff0c\u594b\u70c8\u81ea\u6709\u65f6\u3002
p4944
sVRemarkPYInitial
p4945
VLWH
p4946
sVContactFlag
p4947
I3
sVUin
p4948
I0
sVNickName
p4949
VEvan
p4950
sVAppAccountFlag
p4951
I0
sVVerifyFlag
p4952
I0
sVRemarkPYQuanPin
p4953
Vliwenhao
p4954
sVHeadImgUrl
p4955
V/cgi-bin/mmwebwx-bin/webwxgeticon?seq=683304192&username=@37fa51b1566639e9a172f8460e4cdb3f&skey=@crypt_d5e09b21_f6d4eb8ff700a7cb445282cdd5f699d7
p4956
sVKeyWord
p4957
Vtrh
p4958
sVProvince
p4959
V\u5b81\u590f
p4960
sVPYInitial
p4961
VEVAN
p4962
sVRemarkName
p4963
V\u674e\u6587\u660a
p4964
sVIsOwner
p4965
I0
sVSex
p4966
I1
sVStarFriend
p4967
I0
sVHideInputBarFlag
p4968
I0
sVChatRoomId
p4969
I0
sVEncryChatRoomId
p4970
g55
sVAttrStatus
p4971
I102437
sVStatues
p4972
I0
stp4973
Rp4974
I1
bag34
(g38
g39
(dp4975
VUserName
p4976
V@ee05d111821f6affa64558144ac1ba77
p4977
sVCity
p4978
V\u94f6\u5ddd
p4979
sVSnsFlag
p4980
I49
sVDisplayName
p4981
g55
sVUniFriend
p4982
I0
sVMemberCount
p4983
I0
sVOwnerUin
p4984
I0
sVMemberList
p4985
g51
sVAlias
p4986
g55
sVPYQuanPin
p4987
Vshoubuxialaile
p4988
sVSignature
p4989
V\u4e4c\u62c9\u62c9\u62c9\u62c9\u62c9
p4990
sVRemarkPYInitial
p4991
VZXK
p4992
sVContactFlag
p4993
I1
sVUin
p4994
I0
sVNickName
p4995
V\u7626\u4e0d\u4e0b\u6765\u4e86
p4996
sVAppAccountFlag
p4997
I0
sVVerifyFlag
p4998
I0
sVRemarkPYQuanPin
p4999
Vzhangxiaokai
p5000
sVHeadImgUrl
p5001
V/cgi-bin/mmwebwx-bin/webwxgeticon?seq=683306023&username=@ee05d111821f6affa64558144ac1ba77&skey=@crypt_d5e09b21_f6d4eb8ff700a7cb445282cdd5f699d7
p5002
sVKeyWord
p5003
Vqq7
p5004
sVProvince
p5005
V\u5b81\u590f
p5006
sVPYInitial
p5007
VSBXLL
p5008
sVRemarkName
p5009
V\u5f20\u5b5d\u51ef
p5010
sVIsOwner
p5011
I0
sVSex
p5012
I1
sVStarFriend
p5013
I0
sVHideInputBarFlag
p5014
I0
sVChatRoomId
p5015
I0
sVEncryChatRoomId
p5016
g55
sVAttrStatus
p5017
I110631
sVStatues
p5018
I0
stp5019
Rp5020
I1
bag34
(g38
g39
(dp5021
VUserName
p5022
V@4705d87e0c0137b7cdd7441a62da5995
p5023
sVCity
p5024
V\u94f6\u5ddd
p5025
sVSnsFlag
p5026
I17
sVDisplayName
p5027
g55
sVUniFriend
p5028
I0
sVMemberCount
p5029
I0
sVOwnerUin
p5030
I0
sVMemberList
p5031
g51
sVAlias
p5032
g55
sVPYQuanPin
p5033
Vshizhen
p5034
sVSignature
p5035
g55
sVRemarkPYInitial
p5036
VJY
p5037
sVContactFlag
p5038
I3
sVUin
p5039
I0
sVNickName
p5040
V\u662f\u6715\u3002
p5041
sVAppAccountFlag
p5042
I0
sVVerifyFlag
p5043
I0
sVRemarkPYQuanPin
p5044
Vjiayue
p5045
sVHeadImgUrl
p5046
V/cgi-bin/mmwebwx-bin/webwxgeticon?seq=683306584&username=@4705d87e0c0137b7cdd7441a62da5995&skey=@crypt_d5e09b21_f6d4eb8ff700a7cb445282cdd5f699d7
p5047
sVKeyWord
p5048
Vjj3
p5049
sVProvince
p5050
V\u5b81\u590f
p5051
sVPYInitial
p5052
VSZ
p5053
sVRemarkName
p5054
V\u5bb6\u4e50
p5055
sVIsOwner
p5056
I0
sVSex
p5057
I1
sVStarFriend
p5058
I0
sVHideInputBarFlag
p5059
I0
sVChatRoomId
p5060
I0
sVEncryChatRoomId
p5061
g55
sVAttrStatus
p5062
I12391
sVStatues
p5063
I0
stp5064
Rp5065
I1
bag34
(g38
g39
(dp5066
VUserName
p5067
V@2625db7bf384ebed55f5edadd60ba1c0990ad958e32cf6be4ec7d23dee7a8541
p5068
sVCity
p5069
g55
sVSnsFlag
p5070
I17
sVDisplayName
p5071
g55
sVUniFriend
p5072
I0
sVMemberCount
p5073
I0
sVOwnerUin
p5074
I0
sVMemberList
p5075
g51
sVAlias
p5076
g55
sVPYQuanPin
p5077
Vyoumengxiangdelanyangyang?
p5078
sVSignature
p5079
V\u6211\u4eec\u8fd8\u672a\u914d\u59a5\u5251\u5462\uff0c\u51fa\u95e8\u4fbf\u5df2\u662f\u6c5f\u6e56\u3002\U0001f914
p5080
sVRemarkPYInitial
p5081
VYZ
p5082
sVContactFlag
p5083
I3
sVUin
p5084
I0
sVNickName
p5085
V\u6709\u68a6\u60f3\u7684\u61d2\u7f8a\u7f8a\U0001f914
p5086
sVAppAccountFlag
p5087
I0
sVVerifyFlag
p5088
I0
sVRemarkPYQuanPin
p5089
Vyangzhao
p5090
sVHeadImgUrl
p5091
V/cgi-bin/mmwebwx-bin/webwxgeticon?seq=683306937&username=@2625db7bf384ebed55f5edadd60ba1c0990ad958e32cf6be4ec7d23dee7a8541&skey=@crypt_d5e09b21_f6d4eb8ff700a7cb445282cdd5f699d7
p5092
sVKeyWord
p5093
g55
sVProvince
p5094
g55
sVPYInitial
p5095
VYMXDLYY?
p5096
sVRemarkName
p5097
V\u6768\u662d
p5098
sVIsOwner
p5099
I0
sVSex
p5100
I1
sVStarFriend
p5101
I0
sVHideInputBarFlag
p5102
I0
sVChatRoomId
p5103
I0
sVEncryChatRoomId
p5104
g55
sVAttrStatus
p5105
I233573
sVStatues
p5106
I0
stp5107
Rp5108
I1
bag34
(g38
g39
(dp5109
VUserName
p5110
V@9d442228d5531a421f1505d49835f9881ede9d31bac0e2deaf9625846209298f
p5111
sVCity
p5112
g55
sVSnsFlag
p5113
I17
sVDisplayName
p5114
g55
sVUniFriend
p5115
I0
sVMemberCount
p5116
I0
sVOwnerUin
p5117
I0
sVMemberList
p5118
g51
sVAlias
p5119
g55
sVPYQuanPin
p5120
Vshenhailidexingxingspanclassemojiemoji2747span
p5121
sVSignature
p5122
g55
sVRemarkPYInitial
p5123
VHH
p5124
sVContactFlag
p5125
I1
sVUin
p5126
I0
sVNickName
p5127
V\u6df1\u6d77\u91cc\u7684\u661f\u661f \u2747
p5128
sVAppAccountFlag
p5129
I0
sVVerifyFlag
p5130
I0
sVRemarkPYQuanPin
p5131
Vhuhui
p5132
sVHeadImgUrl
p5133
V/cgi-bin/mmwebwx-bin/webwxgeticon?seq=631102771&username=@9d442228d5531a421f1505d49835f9881ede9d31bac0e2deaf9625846209298f&skey=@crypt_d5e09b21_f6d4eb8ff700a7cb445282cdd5f699d7
p5134
sVKeyWord
p5135
g55
sVProvince
p5136
VZurich
p5137
sVPYInitial
p5138
VSHLDXXSPANCLASSEMOJIEMOJI2747SPAN
p5139
sVRemarkName
p5140
V\u80e1\u6167
p5141
sVIsOwner
p5142
I0
sVSex
p5143
I2
sVStarFriend
p5144
I0
sVHideInputBarFlag
p5145
I0
sVChatRoomId
p5146
I0
sVEncryChatRoomId
p5147
g55
sVAttrStatus
p5148
I5245
sVStatues
p5149
I0
stp5150
Rp5151
I1
bag34
(g38
g39
(dp5152
VUserName
p5153
V@5093d159157d422fe7f99caa3bf64b74
p5154
sVCity
p5155
g55
sVSnsFlag
p5156
I145
sVDisplayName
p5157
g55
sVUniFriend
p5158
I0
sVMemberCount
p5159
I0
sVOwnerUin
p5160
I0
sVMemberList
p5161
g51
sVAlias
p5162
g55
sVPYQuanPin
p5163
VJustkidding
p5164
sVSignature
p5165
g55
sVRemarkPYInitial
p5166
VGGGGGG
p5167
sVContactFlag
p5168
I8197
sVUin
p5169
I0
sVNickName
p5170
VJustkidding
p5171
sVAppAccountFlag
p5172
I0
sVVerifyFlag
p5173
I0
sVRemarkPYQuanPin
p5174
Vguoguoguoguoguoguo
p5175
sVHeadImgUrl
p5176
V/cgi-bin/mmwebwx-bin/webwxgeticon?seq=683307484&username=@5093d159157d422fe7f99caa3bf64b74&skey=@crypt_d5e09b21_f6d4eb8ff700a7cb445282cdd5f699d7
p5177
sVKeyWord
p5178
VJus
p5179
sVProvince
p5180
g55
sVPYInitial
p5181
VJUSTKIDDING
p5182
sVRemarkName
p5183
V\u8748\u8748\u8748\u8748\u8748\u8748
p5184
sVIsOwner
p5185
I0
sVSex
p5186
I1
sVStarFriend
p5187
I0
sVHideInputBarFlag
p5188
I0
sVChatRoomId
p5189
I0
sVEncryChatRoomId
p5190
g55
sVAttrStatus
p5191
I33815015
sVStatues
p5192
I0
stp5193
Rp5194
I1
bag34
(g38
g39
(dp5195
VUserName
p5196
V@43e1ef26f9ec8bedff0667b5f1bad88d
p5197
sVCity
p5198
VSydney
p5199
sVSnsFlag
p5200
I49
sVDisplayName
p5201
g55
sVUniFriend
p5202
I0
sVMemberCount
p5203
I0
sVOwnerUin
p5204
I0
sVMemberList
p5205
g51
sVAlias
p5206
g55
sVPYQuanPin
p5207
Vbaochenxuan
p5208
sVSignature
p5209
Vhave a little faith
p5210
sVRemarkPYInitial
p5211
VAJ
p5212
sVContactFlag
p5213
I1
sVUin
p5214
I0
sVNickName
p5215
V\u9c8d\u6668\u8f69
p5216
sVAppAccountFlag
p5217
I0
sVVerifyFlag
p5218
I0
sVRemarkPYQuanPin
p5219
Vaju
p5220
sVHeadImgUrl
p5221
V/cgi-bin/mmwebwx-bin/webwxgeticon?seq=683294416&username=@43e1ef26f9ec8bedff0667b5f1bad88d&skey=@crypt_d5e09b21_f6d4eb8ff700a7cb445282cdd5f699d7
p5222
sVKeyWord
p5223
Vpow
p5224
sVProvince
p5225
VNew South Wales
p5226
sVPYInitial
p5227
VBCX
p5228
sVRemarkName
p5229
V\u963f\u83ca
p5230
sVIsOwner
p5231
I0
sVSex
p5232
I1
sVStarFriend
p5233
I0
sVHideInputBarFlag
p5234
I0
sVChatRoomId
p5235
I0
sVEncryChatRoomId
p5236
g55
sVAttrStatus
p5237
I104551
sVStatues
p5238
I0
stp5239
Rp5240
I1
bag34
(g38
g39
(dp5241
VUserName
p5242
V@5de49feadac2087ac42f7966c2915d23
p5243
sVCity
p5244
V\u94f6\u5ddd
p5245
sVSnsFlag
p5246
I17
sVDisplayName
p5247
g55
sVUniFriend
p5248
I0
sVMemberCount
p5249
I0
sVOwnerUin
p5250
I0
sVMemberList
p5251
g51
sVAlias
p5252
g55
sVPYQuanPin
p5253
Vlvjianbo
p5254
sVSignature
p5255
VI love what you are all about.
p5256
sVRemarkPYInitial
p5257
VLJB
p5258
sVContactFlag
p5259
I1
sVUin
p5260
I0
sVNickName
p5261
V\u5415\u5251\u6ce2
p5262
sVAppAccountFlag
p5263
I0
sVVerifyFlag
p5264
I0
sVRemarkPYQuanPin
p5265
Vlvjianbo
p5266
sVHeadImgUrl
p5267
V/cgi-bin/mmwebwx-bin/webwxgeticon?seq=683307712&username=@5de49feadac2087ac42f7966c2915d23&skey=@crypt_d5e09b21_f6d4eb8ff700a7cb445282cdd5f699d7
p5268
sVKeyWord
p5269
Vlvj
p5270
sVProvince
p5271
V\u5b81\u590f
p5272
sVPYInitial
p5273
VLJB
p5274
sVRemarkName
p5275
V\u5415\u5251\u6ce2
p5276
sVIsOwner
p5277
I0
sVSex
p5278
I1
sVStarFriend
p5279
I0
sVHideInputBarFlag
p5280
I0
sVChatRoomId
p5281
I0
sVEncryChatRoomId
p5282
g55
sVAttrStatus
p5283
I16777575
sVStatues
p5284
I0
stp5285
Rp5286
I1
bag34
(g38
g39
(dp5287
VUserName
p5288
V@6e50c69f84c3504be48344a5d751bb35
p5289
sVCity
p5290
V\u94f6\u5ddd
p5291
sVSnsFlag
p5292
I17
sVDisplayName
p5293
g55
sVUniFriend
p5294
I0
sVMemberCount
p5295
I0
sVOwnerUin
p5296
I0
sVMemberList
p5297
g51
sVAlias
p5298
g55
sVPYQuanPin
p5299
Vgududerenshikechide
p5300
sVSignature
p5301
V\u8fd9\u4e2a\u5c34\u5c2c\u7684\u5e74\u7eaa\uff0c\u552f\u6709\u771f\u60c5\u548c\u8001\u53cb\u4e0d\u53ef\u8f9c\u8d1f\u3002\u3002\u3002
p5302
sVRemarkPYInitial
p5303
VZS
p5304
sVContactFlag
p5305
I1
sVUin
p5306
I0
sVNickName
p5307
V\u5b64\u72ec\u7684\u4eba\u662f\u53ef\u803b\u7684\u3002
p5308
sVAppAccountFlag
p5309
I0
sVVerifyFlag
p5310
I0
sVRemarkPYQuanPin
p5311
Vzuosao
p5312
sVHeadImgUrl
p5313
V/cgi-bin/mmwebwx-bin/webwxgeticon?seq=683307839&username=@6e50c69f84c3504be48344a5d751bb35&skey=@crypt_d5e09b21_f6d4eb8ff700a7cb445282cdd5f699d7
p5314
sVKeyWord
p5315
VJee
p5316
sVProvince
p5317
V\u5b81\u590f
p5318
sVPYInitial
p5319
VGDDRSKCD
p5320
sVRemarkName
p5321
V\u4f5c\u5ac2
p5322
sVIsOwner
p5323
I0
sVSex
p5324
I1
sVStarFriend
p5325
I0
sVHideInputBarFlag
p5326
I0
sVChatRoomId
p5327
I0
sVEncryChatRoomId
p5328
g55
sVAttrStatus
p5329
I110695
sVStatues
p5330
I0
stp5331
Rp5332
I1
bag34
(g38
g39
(dp5333
VUserName
p5334
V@5f8980c9e1f3393b4b38f4439a24dddf
p5335
sVCity
p5336
g55
sVSnsFlag
p5337
I49
sVDisplayName
p5338
g55
sVUniFriend
p5339
I0
sVMemberCount
p5340
I0
sVOwnerUin
p5341
I0
sVMemberList
p5342
g51
sVAlias
p5343
g55
sVPYQuanPin
p5344
VYizhou
p5345
sVSignature
p5346
g55
sVRemarkPYInitial
p5347
VXYZ
p5348
sVContactFlag
p5349
I1
sVUin
p5350
I0
sVNickName
p5351
VYizhou
p5352
sVAppAccountFlag
p5353
I0
sVVerifyFlag
p5354
I0
sVRemarkPYQuanPin
p5355
Vxiayizhou
p5356
sVHeadImgUrl
p5357
V/cgi-bin/mmwebwx-bin/webwxgeticon?seq=683306902&username=@5f8980c9e1f3393b4b38f4439a24dddf&skey=@crypt_d5e09b21_f6d4eb8ff700a7cb445282cdd5f699d7
p5358
sVKeyWord
p5359
Vxia
p5360
sVProvince
p5361
VKarlsruhe
p5362
sVPYInitial
p5363
VYIZHOU
p5364
sVRemarkName
p5365
V\u590f\u4e49\u6d32
p5366
sVIsOwner
p5367
I0
sVSex
p5368
I1
sVStarFriend
p5369
I0
sVHideInputBarFlag
p5370
I0
sVChatRoomId
p5371
I0
sVEncryChatRoomId
p5372
g55
sVAttrStatus
p5373
I75495
sVStatues
p5374
I0
stp5375
Rp5376
I1
bag34
(g38
g39
(dp5377
VUserName
p5378
V@a8c75c5c1b4dbf44fe46ee837b701d066b190405101e6983dbd7521e265665ee
p5379
sVCity
p5380
g55
sVSnsFlag
p5381
I129
sVDisplayName
p5382
g55
sVUniFriend
p5383
I0
sVMemberCount
p5384
I0
sVOwnerUin
p5385
I0
sVMemberList
p5386
g51
sVAlias
p5387
g55
sVPYQuanPin
p5388
Vnuhaoyang
p5389
sVSignature
p5390
V\u81f3\u5b5d\u81f3\u7231\uff0c\u514b\u52e4\u514b\u5ec9
p5391
sVRemarkPYInitial
p5392
VYWC
p5393
sVContactFlag
p5394
I3
sVUin
p5395
I0
sVNickName
p5396
Vnuhao\u6768\uff01
p5397
sVAppAccountFlag
p5398
I0
sVVerifyFlag
p5399
I0
sVRemarkPYQuanPin
p5400
Vyangwancheng
p5401
sVHeadImgUrl
p5402
V/cgi-bin/mmwebwx-bin/webwxgeticon?seq=683248438&username=@a8c75c5c1b4dbf44fe46ee837b701d066b190405101e6983dbd7521e265665ee&skey=@crypt_d5e09b21_f6d4eb8ff700a7cb445282cdd5f699d7
p5403
sVKeyWord
p5404
g55
sVProvince
p5405
g55
sVPYInitial
p5406
VNUHAOY
p5407
sVRemarkName
p5408
V\u6768\u4e07\u7a0b
p5409
sVIsOwner
p5410
I0
sVSex
p5411
I1
sVStarFriend
p5412
I0
sVHideInputBarFlag
p5413
I0
sVChatRoomId
p5414
I0
sVEncryChatRoomId
p5415
g55
sVAttrStatus
p5416
I135525
sVStatues
p5417
I0
stp5418
Rp5419
I1
bag34
(g38
g39
(dp5420
VUserName
p5421
V@454ca2cbc0d5ced0730d63fe848a6509
p5422
sVCity
p5423
V\u6df1\u5733
p5424
sVSnsFlag
p5425
I145
sVDisplayName
p5426
g55
sVUniFriend
p5427
I0
sVMemberCount
p5428
I0
sVOwnerUin
p5429
I0
sVMemberList
p5430
g51
sVAlias
p5431
g55
sVPYQuanPin
p5432
Vxinyueer
p5433
sVSignature
p5434
V\u5fc3\u7406\u5efa\u8bbe\u4e2d\u2026
p5435
sVRemarkPYInitial
p5436
VWH
p5437
sVContactFlag
p5438
I8193
sVUin
p5439
I0
sVNickName
p5440
V\u6b23\u60a6\u513f
p5441
sVAppAccountFlag
p5442
I0
sVVerifyFlag
p5443
I0
sVRemarkPYQuanPin
p5444
Vwohua
p5445
sVHeadImgUrl
p5446
V/cgi-bin/mmwebwx-bin/webwxgeticon?seq=683290633&username=@454ca2cbc0d5ced0730d63fe848a6509&skey=@crypt_d5e09b21_f6d4eb8ff700a7cb445282cdd5f699d7
p5447
sVKeyWord
p5448
Vyue
p5449
sVProvince
p5450
V\u5e7f\u4e1c
p5451
sVPYInitial
p5452
VXYE
p5453
sVRemarkName
p5454
V\u6211\u82b1
p5455
sVIsOwner
p5456
I0
sVSex
p5457
I2
sVStarFriend
p5458
I0
sVHideInputBarFlag
p5459
I0
sVChatRoomId
p5460
I0
sVEncryChatRoomId
p5461
g55
sVAttrStatus
p5462
I204263
sVStatues
p5463
I0
stp5464
Rp5465
I1
bag34
(g38
g39
(dp5466
VUserName
p5467
V@c6b4eb18d3506ec4f5c7bc036c0ba2bc93bd0bfc839c45ca25e0e1add4a78050
p5468
sVCity
p5469
V\u957f\u6625
p5470
sVSnsFlag
p5471
I17
sVDisplayName
p5472
g55
sVUniFriend
p5473
I0
sVMemberCount
p5474
I0
sVOwnerUin
p5475
I0
sVMemberList
p5476
g51
sVAlias
p5477
g55
sVPYQuanPin
p5478
Vhahahaha
p5479
sVSignature
p5480
g55
sVRemarkPYInitial
p5481
VWBL
p5482
sVContactFlag
p5483
I3
sVUin
p5484
I0
sVNickName
p5485
V\u54c8\u54c8\u54c8\u54c8
p5486
sVAppAccountFlag
p5487
I0
sVVerifyFlag
p5488
I0
sVRemarkPYQuanPin
p5489
Vwangbingli
p5490
sVHeadImgUrl
p5491
V/cgi-bin/mmwebwx-bin/webwxgeticon?seq=683265432&username=@c6b4eb18d3506ec4f5c7bc036c0ba2bc93bd0bfc839c45ca25e0e1add4a78050&skey=@crypt_d5e09b21_f6d4eb8ff700a7cb445282cdd5f699d7
p5492
sVKeyWord
p5493
g55
sVProvince
p5494
V\u5409\u6797
p5495
sVPYInitial
p5496
VHHHH
p5497
sVRemarkName
p5498
V\u738b\u51b0\u5229
p5499
sVIsOwner
p5500
I0
sVSex
p5501
I1
sVStarFriend
p5502
I0
sVHideInputBarFlag
p5503
I0
sVChatRoomId
p5504
I0
sVEncryChatRoomId
p5505
g55
sVAttrStatus
p5506
I33658917
sVStatues
p5507
I0
stp5508
Rp5509
I1
bag34
(g38
g39
(dp5510
VUserName
p5511
V@520eb903eac4d6a26a1bf19618c0976cb46319e2cf7e214e7acef77d99bf0651
p5512
sVCity
p5513
V\u6210\u90fd
p5514
sVSnsFlag
p5515
I177
sVDisplayName
p5516
g55
sVUniFriend
p5517
I0
sVMemberCount
p5518
I0
sVOwnerUin
p5519
I0
sVMemberList
p5520
g51
sVAlias
p5521
g55
sVPYQuanPin
p5522
Vyangxiaotai
p5523
sVSignature
p5524
g55
sVRemarkPYInitial
p5525
VYY
p5526
sVContactFlag
p5527
I3
sVUin
p5528
I0
sVNickName
p5529
V\u6768 \u5c0f\u53f0
p5530
sVAppAccountFlag
p5531
I0
sVVerifyFlag
p5532
I0
sVRemarkPYQuanPin
p5533
Vyangyi
p5534
sVHeadImgUrl
p5535
V/cgi-bin/mmwebwx-bin/webwxgeticon?seq=683298313&username=@520eb903eac4d6a26a1bf19618c0976cb46319e2cf7e214e7acef77d99bf0651&skey=@crypt_d5e09b21_f6d4eb8ff700a7cb445282cdd5f699d7
p5536
sVKeyWord
p5537
g55
sVProvince
p5538
V\u56db\u5ddd
p5539
sVPYInitial
p5540
VYXT
p5541
sVRemarkName
p5542
V\u6768\u6021
p5543
sVIsOwner
p5544
I0
sVSex
p5545
I2
sVStarFriend
p5546
I0
sVHideInputBarFlag
p5547
I0
sVChatRoomId
p5548
I0
sVEncryChatRoomId
p5549
g55
sVAttrStatus
p5550
I118205
sVStatues
p5551
I0
stp5552
Rp5553
I1
bag34
(g38
g39
(dp5554
VUserName
p5555
V@6a00e7f5c7e6e217d95435c6308375b497021b5351602a44a8d00e804ebef75a
p5556
sVCity
p5557
V\u94f6\u5ddd
p5558
sVSnsFlag
p5559
I17
sVDisplayName
p5560
g55
sVUniFriend
p5561
I0
sVMemberCount
p5562
I0
sVOwnerUin
p5563
I0
sVMemberList
p5564
g51
sVAlias
p5565
g55
sVPYQuanPin
p5566
Vxinshengmingyue
p5567
sVSignature
p5568
V\u8def\u867d\u8fdc\u884c\u5219\u5c06\u81f3\uff0c\u552f\u4e00\u4e14\u4e0d\u53ef\u8bd5\u9519\u3002    \u65b0\u624b\u673a\u53f7\uff1a182 9551 3770
p5569
sVRemarkPYInitial
p5570
VLZ
p5571
sVContactFlag
p5572
I1
sVUin
p5573
I0
sVNickName
p5574
V\u5fc3\u5347\u660e\u6708
p5575
sVAppAccountFlag
p5576
I0
sVVerifyFlag
p5577
I0
sVRemarkPYQuanPin
p5578
Vlizhao
p5579
sVHeadImgUrl
p5580
V/cgi-bin/mmwebwx-bin/webwxgeticon?seq=683300596&username=@6a00e7f5c7e6e217d95435c6308375b497021b5351602a44a8d00e804ebef75a&skey=@crypt_d5e09b21_f6d4eb8ff700a7cb445282cdd5f699d7
p5581
sVKeyWord
p5582
g55
sVProvince
p5583
V\u5b81\u590f
p5584
sVPYInitial
p5585
VXSMY
p5586
sVRemarkName
p5587
V\u674e\u948a
p5588
sVIsOwner
p5589
I0
sVSex
p5590
I1
sVStarFriend
p5591
I0
sVHideInputBarFlag
p5592
I0
sVChatRoomId
p5593
I0
sVEncryChatRoomId
p5594
g55
sVAttrStatus
p5595
I16781349
sVStatues
p5596
I0
stp5597
Rp5598
I1
bag34
(g38
g39
(dp5599
VUserName
p5600
V@53f3eda14f01eab37665932206d3add23d95c6653fb36c7c7336abe48749ed9c
p5601
sVCity
p5602
V\u56fa\u539f
p5603
sVSnsFlag
p5604
I17
sVDisplayName
p5605
g55
sVUniFriend
p5606
I0
sVMemberCount
p5607
I0
sVOwnerUin
p5608
I0
sVMemberList
p5609
g51
sVAlias
p5610
g55
sVPYQuanPin
p5611
Vxiaoxiaoxia
p5612
sVSignature
p5613
V\u4eba\u751f\u6ca1\u6709\u5f69\u6392\uff0c\u6bcf\u4e00\u79d2\u90fd\u662f\u73b0\u573a\u76f4\u64ad\u3002
p5614
sVRemarkPYInitial
p5615
VDJX
p5616
sVContactFlag
p5617
I3
sVUin
p5618
I0
sVNickName
p5619
V\u5c0f\u6653\u971e
p5620
sVAppAccountFlag
p5621
I0
sVVerifyFlag
p5622
I0
sVRemarkPYQuanPin
p5623
Vdujinxia
p5624
sVHeadImgUrl
p5625
V/cgi-bin/mmwebwx-bin/webwxgeticon?seq=683291246&username=@53f3eda14f01eab37665932206d3add23d95c6653fb36c7c7336abe48749ed9c&skey=@crypt_d5e09b21_f6d4eb8ff700a7cb445282cdd5f699d7
p5626
sVKeyWord
p5627
g55
sVProvince
p5628
V\u5b81\u590f
p5629
sVPYInitial
p5630
VXXX
p5631
sVRemarkName
p5632
V\u675c\u91d1\u971e
p5633
sVIsOwner
p5634
I0
sVSex
p5635
I2
sVStarFriend
p5636
I0
sVHideInputBarFlag
p5637
I0
sVChatRoomId
p5638
I0
sVEncryChatRoomId
p5639
g55
sVAttrStatus
p5640
I135357
sVStatues
p5641
I0
stp5642
Rp5643
I1
bag34
(g38
g39
(dp5644
VUserName
p5645
V@b693fbd1553a9111d72bb36020c8565a
p5646
sVCity
p5647
g55
sVSnsFlag
p5648
I177
sVDisplayName
p5649
g55
sVUniFriend
p5650
I0
sVMemberCount
p5651
I0
sVOwnerUin
p5652
I0
sVMemberList
p5653
g51
sVAlias
p5654
g55
sVPYQuanPin
p5655
VDuxxi
p5656
sVSignature
p5657
g55
sVRemarkPYInitial
p5658
VHH
p5659
sVContactFlag
p5660
I1
sVUin
p5661
I0
sVNickName
p5662
VDuxxi
p5663
sVAppAccountFlag
p5664
I0
sVVerifyFlag
p5665
I0
sVRemarkPYQuanPin
p5666
Vhuhu
p5667
sVHeadImgUrl
p5668
V/cgi-bin/mmwebwx-bin/webwxgeticon?seq=683308727&username=@b693fbd1553a9111d72bb36020c8565a&skey=@crypt_d5e09b21_f6d4eb8ff700a7cb445282cdd5f699d7
p5669
sVKeyWord
p5670
Vdud
p5671
sVProvince
p5672
g55
sVPYInitial
p5673
VDUXXI
p5674
sVRemarkName
p5675
V\u864e\u864e
p5676
sVIsOwner
p5677
I0
sVSex
p5678
I0
sVStarFriend
p5679
I0
sVHideInputBarFlag
p5680
I0
sVChatRoomId
p5681
I0
sVEncryChatRoomId
p5682
g55
sVAttrStatus
p5683
I105279
sVStatues
p5684
I0
stp5685
Rp5686
I1
bag34
(g38
g39
(dp5687
VUserName
p5688
V@484f12bc0eed9960bff152ac30121486
p5689
sVCity
p5690
V\u9752\u5c9b
p5691
sVSnsFlag
p5692
I177
sVDisplayName
p5693
g55
sVUniFriend
p5694
I0
sVMemberCount
p5695
I0
sVOwnerUin
p5696
I0
sVMemberList
p5697
g51
sVAlias
p5698
g55
sVPYQuanPin
p5699
Vwalandedaxi
p5700
sVSignature
p5701
g55
sVRemarkPYInitial
p5702
VCX
p5703
sVContactFlag
p5704
I1
sVUin
p5705
I0
sVNickName
p5706
V\u74e6\u84dd\u7684\u5927\u66e6
p5707
sVAppAccountFlag
p5708
I0
sVVerifyFlag
p5709
I0
sVRemarkPYQuanPin
p5710
Vchenxi
p5711
sVHeadImgUrl
p5712
V/cgi-bin/mmwebwx-bin/webwxgeticon?seq=683300162&username=@484f12bc0eed9960bff152ac30121486&skey=@crypt_d5e09b21_f6d4eb8ff700a7cb445282cdd5f699d7
p5713
sVKeyWord
p5714
Vaix
p5715
sVProvince
p5716
V\u5c71\u4e1c
p5717
sVPYInitial
p5718
VWLDDX
p5719
sVRemarkName
p5720
V\u9648\u66e6
p5721
sVIsOwner
p5722
I0
sVSex
p5723
I2
sVStarFriend
p5724
I0
sVHideInputBarFlag
p5725
I0
sVChatRoomId
p5726
I0
sVEncryChatRoomId
p5727
g55
sVAttrStatus
p5728
I99749
sVStatues
p5729
I0
stp5730
Rp5731
I1
bag34
(g38
g39
(dp5732
VUserName
p5733
V@b0a29256710d51ee6f30a65dc1f22a16
p5734
sVCity
p5735
VMelbourne
p5736
sVSnsFlag
p5737
I177
sVDisplayName
p5738
g55
sVUniFriend
p5739
I0
sVMemberCount
p5740
I0
sVOwnerUin
p5741
I0
sVMemberList
p5742
g51
sVAlias
p5743
g55
sVPYQuanPin
p5744
VLina?
p5745
sVSignature
p5746
VReality.
p5747
sVRemarkPYInitial
p5748
VPIGGY
p5749
sVContactFlag
p5750
I8197
sVUin
p5751
I0
sVNickName
p5752
VLina\U0001f5a4
p5753
sVAppAccountFlag
p5754
I0
sVVerifyFlag
p5755
I0
sVRemarkPYQuanPin
p5756
Vpiggy
p5757
sVHeadImgUrl
p5758
V/cgi-bin/mmwebwx-bin/webwxgeticon?seq=683291089&username=@b0a29256710d51ee6f30a65dc1f22a16&skey=@crypt_d5e09b21_f6d4eb8ff700a7cb445282cdd5f699d7
p5759
sVKeyWord
p5760
VZLN
p5761
sVProvince
p5762
VVictoria
p5763
sVPYInitial
p5764
VLINA?
p5765
sVRemarkName
p5766
Vpiggy
p5767
sVIsOwner
p5768
I0
sVSex
p5769
I2
sVStarFriend
p5770
I0
sVHideInputBarFlag
p5771
I0
sVChatRoomId
p5772
I0
sVEncryChatRoomId
p5773
g55
sVAttrStatus
p5774
I100897
sVStatues
p5775
I0
stp5776
Rp5777
I1
bag34
(g38
g39
(dp5778
VUserName
p5779
V@365cc44981ab81e3512864d4bb6a2f2d
p5780
sVCity
p5781
g55
sVSnsFlag
p5782
I49
sVDisplayName
p5783
g55
sVUniFriend
p5784
I0
sVMemberCount
p5785
I0
sVOwnerUin
p5786
I0
sVMemberList
p5787
g51
sVAlias
p5788
g55
sVPYQuanPin
p5789
VXck
p5790
sVSignature
p5791
V\u5730\u52bf\u5764\uff0c\u541b\u5b50\u4ee5\u539a\u5fb7\u8f7d\u7269
p5792
sVRemarkPYInitial
p5793
VXLB
p5794
sVContactFlag
p5795
I1
sVUin
p5796
I0
sVNickName
p5797
VX.ck
p5798
sVAppAccountFlag
p5799
I0
sVVerifyFlag
p5800
I0
sVRemarkPYQuanPin
p5801
Vxinlaoban
p5802
sVHeadImgUrl
p5803
V/cgi-bin/mmwebwx-bin/webwxgeticon?seq=683309145&username=@365cc44981ab81e3512864d4bb6a2f2d&skey=@crypt_d5e09b21_f6d4eb8ff700a7cb445282cdd5f699d7
p5804
sVKeyWord
p5805
Vtxz
p5806
sVProvince
p5807
g55
sVPYInitial
p5808
VXCK
p5809
sVRemarkName
p5810
V\u8f9b\u8001\u677f
p5811
sVIsOwner
p5812
I0
sVSex
p5813
I1
sVStarFriend
p5814
I0
sVHideInputBarFlag
p5815
I0
sVChatRoomId
p5816
I0
sVEncryChatRoomId
p5817
g55
sVAttrStatus
p5818
I4305895
sVStatues
p5819
I0
stp5820
Rp5821
I1
bag34
(g38
g39
(dp5822
VUserName
p5823
V@f5a41ab29976ba2712c81e46feea0854b6551b038edb15a4b4204a49323c021e
p5824
sVCity
p5825
V\u6d66\u4e1c\u65b0\u533a
p5826
sVSnsFlag
p5827
I17
sVDisplayName
p5828
g55
sVUniFriend
p5829
I0
sVMemberCount
p5830
I0
sVOwnerUin
p5831
I0
sVMemberList
p5832
g51
sVAlias
p5833
g55
sVPYQuanPin
p5834
Vtangniuniu
p5835
sVSignature
p5836
V\u0295\u2022\u032b\u0361\u2022\u0294 =\u035e\u035f\u035f\u035e\u0295\u2022\u032b\u0361\u2022\u0294 =\u035e\u035f\u035f\u035e\u0295\u2022\u032b\u0361\u2022\u0294
p5837
sVRemarkPYInitial
p5838
VTK
p5839
sVContactFlag
p5840
I1
sVUin
p5841
I0
sVNickName
p5842
V\u6c64\u599e\u599e
p5843
sVAppAccountFlag
p5844
I0
sVVerifyFlag
p5845
I0
sVRemarkPYQuanPin
p5846
Vtangkui
p5847
sVHeadImgUrl
p5848
V/cgi-bin/mmwebwx-bin/webwxgeticon?seq=683286303&username=@f5a41ab29976ba2712c81e46feea0854b6551b038edb15a4b4204a49323c021e&skey=@crypt_d5e09b21_f6d4eb8ff700a7cb445282cdd5f699d7
p5849
sVKeyWord
p5850
g55
sVProvince
p5851
V\u4e0a\u6d77
p5852
sVPYInitial
p5853
VTNN
p5854
sVRemarkName
p5855
V\u6c64\u76d4
p5856
sVIsOwner
p5857
I0
sVSex
p5858
I2
sVStarFriend
p5859
I0
sVHideInputBarFlag
p5860
I0
sVChatRoomId
p5861
I0
sVEncryChatRoomId
p5862
g55
sVAttrStatus
p5863
I33660221
sVStatues
p5864
I0
stp5865
Rp5866
I1
bag34
(g38
g39
(dp5867
VUserName
p5868
V@4eab8603488949e1d4bf855440007a5d
p5869
sVCity
p5870
V\u53a6\u95e8
p5871
sVSnsFlag
p5872
I177
sVDisplayName
p5873
g55
sVUniFriend
p5874
I0
sVMemberCount
p5875
I0
sVOwnerUin
p5876
I0
sVMemberList
p5877
g51
sVAlias
p5878
g55
sVPYQuanPin
p5879
VLAWLIET
p5880
sVSignature
p5881
V\u4f60\u51c6\u5907\u597d\u4e86\u5417
p5882
sVRemarkPYInitial
p5883
VLYM
p5884
sVContactFlag
p5885
I1
sVUin
p5886
I0
sVNickName
p5887
VLAWLIET
p5888
sVAppAccountFlag
p5889
I0
sVVerifyFlag
p5890
I0
sVRemarkPYQuanPin
p5891
Vliuyingmei
p5892
sVHeadImgUrl
p5893
V/cgi-bin/mmwebwx-bin/webwxgeticon?seq=683308369&username=@4eab8603488949e1d4bf855440007a5d&skey=@crypt_d5e09b21_f6d4eb8ff700a7cb445282cdd5f699d7
p5894
sVKeyWord
p5895
VLaw
p5896
sVProvince
p5897
V\u798f\u5efa
p5898
sVPYInitial
p5899
VLAWLIET
p5900
sVRemarkName
p5901
V\u5218\u9896\u6885
p5902
sVIsOwner
p5903
I0
sVSex
p5904
I2
sVStarFriend
p5905
I0
sVHideInputBarFlag
p5906
I0
sVChatRoomId
p5907
I0
sVEncryChatRoomId
p5908
g55
sVAttrStatus
p5909
I102333
sVStatues
p5910
I0
stp5911
Rp5912
I1
bag34
(g38
g39
(dp5913
VUserName
p5914
V@0e52d7a96a84bf71b8b84020a5867533
p5915
sVCity
p5916
g55
sVSnsFlag
p5917
I17
sVDisplayName
p5918
g55
sVUniFriend
p5919
I0
sVMemberCount
p5920
I0
sVOwnerUin
p5921
I0
sVMemberList
p5922
g51
sVAlias
p5923
g55
sVPYQuanPin
p5924
VCorvoAttano
p5925
sVSignature
p5926
V\u68a6\u5883\u53d8\u4e86
p5927
sVRemarkPYInitial
p5928
VLD
p5929
sVContactFlag
p5930
I3
sVUin
p5931
I0
sVNickName
p5932
VCorvoAttano
p5933
sVAppAccountFlag
p5934
I0
sVVerifyFlag
p5935
I0
sVRemarkPYQuanPin
p5936
Vlaoda
p5937
sVHeadImgUrl
p5938
V/cgi-bin/mmwebwx-bin/webwxgeticon?seq=683235028&username=@0e52d7a96a84bf71b8b84020a5867533&skey=@crypt_d5e09b21_f6d4eb8ff700a7cb445282cdd5f699d7
p5939
sVKeyWord
p5940
Vkee
p5941
sVProvince
p5942
VAncona
p5943
sVPYInitial
p5944
VCORVOATTANO
p5945
sVRemarkName
p5946
V\u8001\u5927
p5947
sVIsOwner
p5948
I0
sVSex
p5949
I2
sVStarFriend
p5950
I0
sVHideInputBarFlag
p5951
I0
sVChatRoomId
p5952
I0
sVEncryChatRoomId
p5953
g55
sVAttrStatus
p5954
I67208231
sVStatues
p5955
I0
stp5956
Rp5957
I1
bag34
(g38
g39
(dp5958
VUserName
p5959
V@7c738929e6390aa8afa579623440fd31
p5960
sVCity
p5961
g55
sVSnsFlag
p5962
I49
sVDisplayName
p5963
g55
sVUniFriend
p5964
I0
sVMemberCount
p5965
I0
sVOwnerUin
p5966
I0
sVMemberList
p5967
g51
sVAlias
p5968
g55
sVPYQuanPin
p5969
Vjiyunlong
p5970
sVSignature
p5971
g55
sVRemarkPYInitial
p5972
g55
sVContactFlag
p5973
I3
sVUin
p5974
I0
sVNickName
p5975
V\u5b63\u4e91\u9f99
p5976
sVAppAccountFlag
p5977
I0
sVVerifyFlag
p5978
I0
sVRemarkPYQuanPin
p5979
g55
sVHeadImgUrl
p5980
V/cgi-bin/mmwebwx-bin/webwxgeticon?seq=683288908&username=@7c738929e6390aa8afa579623440fd31&skey=@crypt_d5e09b21_f6d4eb8ff700a7cb445282cdd5f699d7
p5981
sVKeyWord
p5982
Vlou
p5983
sVProvince
p5984
VParis
p5985
sVPYInitial
p5986
VJYL
p5987
sVRemarkName
p5988
g55
sVIsOwner
p5989
I0
sVSex
p5990
I1
sVStarFriend
p5991
I0
sVHideInputBarFlag
p5992
I0
sVChatRoomId
p5993
I0
sVEncryChatRoomId
p5994
g55
sVAttrStatus
p5995
I106999
sVStatues
p5996
I0
stp5997
Rp5998
I1
bag34
(g38
g39
(dp5999
VUserName
p6000
V@4d9ab86691938c8b25b4f25898baf800
p6001
sVCity
p6002
VDallas
p6003
sVSnsFlag
p6004
I49
sVDisplayName
p6005
g55
sVUniFriend
p6006
I0
sVMemberCount
p6007
I0
sVOwnerUin
p6008
I0
sVMemberList
p6009
g51
sVAlias
p6010
g55
sVPYQuanPin
p6011
Vkunkunzeikeai
p6012
sVSignature
p6013
V\u6709\u6ca1\u6709\u4eba\u813e\u6c14\u6bd4\u6211\u8fd8\u5927
p6014
sVRemarkPYInitial
p6015
VWYK
p6016
sVContactFlag
p6017
I1
sVUin
p6018
I0
sVNickName
p6019
V\u5764\u5764\u8d3c\u53ef\u7231
p6020
sVAppAccountFlag
p6021
I0
sVVerifyFlag
p6022
I0
sVRemarkPYQuanPin
p6023
Vwuyikun
p6024
sVHeadImgUrl
p6025
V/cgi-bin/mmwebwx-bin/webwxgeticon?seq=683303188&username=@4d9ab86691938c8b25b4f25898baf800&skey=@crypt_d5e09b21_f6d4eb8ff700a7cb445282cdd5f699d7
p6026
sVKeyWord
p6027
Vqq4
p6028
sVProvince
p6029
VDallas
p6030
sVPYInitial
p6031
VKKZKA
p6032
sVRemarkName
p6033
V\u5434\u9038\u5764
p6034
sVIsOwner
p6035
I0
sVSex
p6036
I2
sVStarFriend
p6037
I0
sVHideInputBarFlag
p6038
I0
sVChatRoomId
p6039
I0
sVEncryChatRoomId
p6040
g55
sVAttrStatus
p6041
I100647
sVStatues
p6042
I0
stp6043
Rp6044
I1
batp6045
Rp6046
I1
bsS'chatroomList'
p6047
g34
(g35
g36
(lp6048
g34
(citchat.storage.templates
Chatroom
p6049
g39
(dp6050
VUserName
p6051
V@@ffcdecd537523f618708d4e52c5aa5dd380c36ffc32bb5c3198481484611c49d
p6052
sVCity
p6053
g55
sVDisplayName
p6054
g55
sVUniFriend
p6055
I0
sS'Self'
p6056
g34
(g38
g39
(dp6057
g41
g31
sg43
g44
sg45
g44
sg46
I0
sg47
I0
sg48
g34
(g35
g36
(lp6058
tp6059
Rp6060
I1
bsg52
g55
sg54
g55
sg56
I454684975
sg57
I0
sg58
I0
sg59
g44
sg60
g44
sg62
g55
sg63
g55
sg65
I0
sg67
I0
sg68
I1
sg69
g44
sg70
I0
sg71
I17
sg72
I0
sg73
I0
sg74
g44
sg75
V896\uff0c7\u50cf\u72d7
p6061
sg77
I0
sg78
V\u4e00\u671f\u4e00\u7948
p6062
sg80
g55
sg81
V/cgi-bin/mmwebwx-bin/webwxgeticon?seq=1201624706&username=@ef2b8f2187cc6fc935d008a0d8a3715a&skey=@crypt_d5e09b21_f6d4eb8ff700a7cb445282cdd5f699d7
p6063
sg83
I1
sg84
I0
sg85
I0
stp6064
Rp6065
I1
bsVMemberList
p6066
g34
(g35
g36
(lp6067
tp6068
Rp6069
I1
bsVPYQuanPin
p6070
Vshizuishanzhinengyinxing
p6071
sVRemarkPYInitial
p6072
g55
sVSex
p6073
I0
sVAppAccountFlag
p6074
I0
sVVerifyFlag
p6075
I0
sVProvince
p6076
g55
sVKeyWord
p6077
g55
sVRemarkName
p6078
g55
sVPYInitial
p6079
VSZSZNYX
p6080
sVIsOwner
p6081
I0
sVChatRoomId
p6082
I0
sVHideInputBarFlag
p6083
I0
sVEncryChatRoomId
p6084
g55
sVAttrStatus
p6085
I0
sVSnsFlag
p6086
I0
sVMemberCount
p6087
I200
sVOwnerUin
p6088
I0
sVAlias
p6089
g55
sS'IsAdmin'
p6090
NsVSignature
p6091
g55
sVContactFlag
p6092
I3
sVNickName
p6093
V\u77f3\u5634\u5c71\u667a\u80fd\u94f6\u884c
p6094
sVRemarkPYQuanPin
p6095
g55
sVHeadImgUrl
p6096
V/cgi-bin/mmwebwx-bin/webwxgetheadimg?seq=683308722&username=@@ffcdecd537523f618708d4e52c5aa5dd380c36ffc32bb5c3198481484611c49d&skey=@crypt_d5e09b21_f6d4eb8ff700a7cb445282cdd5f699d7
p6097
sVUin
p6098
I0
sVStarFriend
p6099
I0
sVStatues
p6100
I0
stp6101
Rp6102
I1
bag34
(g6049
g39
(dp6103
VUserName
p6104
V@@2e25608566bd87e462df7f6ebe983a90e1d217476f46db0a11bf10550c9eb1fb
p6105
sVCity
p6106
g55
sVDisplayName
p6107
g55
sVUniFriend
p6108
I0
sg6056
g34
(g38
g39
(dp6109
g41
g31
sg43
g44
sg45
g44
sg46
I0
sg47
I0
sg48
g34
(g35
g36
(lp6110
tp6111
Rp6112
I1
bsg52
g55
sg54
g55
sg56
I454684975
sg57
I0
sg58
I0
sg59
g44
sg60
g44
sg62
g55
sg63
g55
sg65
I0
sg67
I0
sg68
I1
sg69
g44
sg70
I0
sg71
I17
sg72
I0
sg73
I0
sg74
g44
sg75
g6061
sg77
I0
sg78
g6062
sg80
g55
sg81
g6063
sg83
I1
sg84
I0
sg85
I0
stp6113
Rp6114
I1
bsVMemberList
p6115
g34
(g35
g36
(lp6116
tp6117
Rp6118
I1
bsVPYQuanPin
p6119
V13tumaoshimijuanroubingspanclassemojiemoji1f367span
p6120
sVRemarkPYInitial
p6121
g55
sVSex
p6122
I0
sVAppAccountFlag
p6123
I0
sVVerifyFlag
p6124
I0
sVProvince
p6125
g55
sVKeyWord
p6126
g55
sVRemarkName
p6127
g55
sVPYInitial
p6128
V13TMSMJRBSPANCLASSEMOJIEMOJI1F367SPAN
p6129
sVIsOwner
p6130
I0
sVChatRoomId
p6131
I0
sVHideInputBarFlag
p6132
I0
sVEncryChatRoomId
p6133
g55
sVAttrStatus
p6134
I0
sVSnsFlag
p6135
I0
sVMemberCount
p6136
I6
sVOwnerUin
p6137
I0
sVAlias
p6138
g55
sg6090
NsVSignature
p6139
g55
sVContactFlag
p6140
I2051
sVNickName
p6141
V13\u5154\u732b\u5c4e\u7c73\u5377\u8089\u51b0\U0001f367
p6142
sVRemarkPYQuanPin
p6143
g55
sVHeadImgUrl
p6144
V/cgi-bin/mmwebwx-bin/webwxgetheadimg?seq=683220074&username=@@2e25608566bd87e462df7f6ebe983a90e1d217476f46db0a11bf10550c9eb1fb&skey=@crypt_d5e09b21_f6d4eb8ff700a7cb445282cdd5f699d7
p6145
sVUin
p6146
I0
sVStarFriend
p6147
I0
sVStatues
p6148
I1
stp6149
Rp6150
I1
bag34
(g6049
g39
(dp6151
VUserName
p6152
V@@a1bf599a789060a56a1fd554dc1d95c035b5666fb61bd15bf25311944e140811
p6153
sVCity
p6154
g55
sVDisplayName
p6155
g55
sVUniFriend
p6156
I0
sg6056
g34
(g38
g39
(dp6157
g41
g31
sg43
g44
sg45
g44
sg46
I0
sg47
I0
sg48
g34
(g35
g36
(lp6158
tp6159
Rp6160
I1
bsg52
g55
sg54
g55
sg56
I454684975
sg57
I0
sg58
I0
sg59
g44
sg60
g44
sg62
g55
sg63
g55
sg65
I0
sg67
I0
sg68
I1
sg69
g44
sg70
I0
sg71
I17
sg72
I0
sg73
I0
sg74
g44
sg75
g6061
sg77
I0
sg78
g6062
sg80
g55
sg81
g6063
sg83
I1
sg84
I0
sg85
I0
stp6161
Rp6162
I1
bsVMemberList
p6163
g34
(g35
g36
(lp6164
tp6165
Rp6166
I1
bsVPYQuanPin
p6167
Vxinxikejibu
p6168
sVRemarkPYInitial
p6169
g55
sVSex
p6170
I0
sVAppAccountFlag
p6171
I0
sVVerifyFlag
p6172
I0
sVProvince
p6173
g55
sVKeyWord
p6174
g55
sVRemarkName
p6175
g55
sVPYInitial
p6176
VXXKJB
p6177
sVIsOwner
p6178
I0
sVChatRoomId
p6179
I0
sVHideInputBarFlag
p6180
I0
sVEncryChatRoomId
p6181
g55
sVAttrStatus
p6182
I0
sVSnsFlag
p6183
I0
sVMemberCount
p6184
I68
sVOwnerUin
p6185
I0
sVAlias
p6186
g55
sg6090
NsVSignature
p6187
g55
sVContactFlag
p6188
I3
sVNickName
p6189
V\u4fe1\u606f\u79d1\u6280\u90e8
p6190
sVRemarkPYQuanPin
p6191
g55
sVHeadImgUrl
p6192
V/cgi-bin/mmwebwx-bin/webwxgetheadimg?seq=683299138&username=@@a1bf599a789060a56a1fd554dc1d95c035b5666fb61bd15bf25311944e140811&skey=@crypt_d5e09b21_f6d4eb8ff700a7cb445282cdd5f699d7
p6193
sVUin
p6194
I0
sVStarFriend
p6195
I0
sVStatues
p6196
I0
stp6197
Rp6198
I1
bag34
(g6049
g39
(dp6199
VUserName
p6200
V@@5f2e8359b0dfa94bf2a4ead23e179e3b8320d87448619ee240994defb90ca4a2
p6201
sVCity
p6202
g55
sVDisplayName
p6203
g55
sVUniFriend
p6204
I0
sg6056
g34
(g38
g39
(dp6205
g41
g31
sg43
g44
sg45
g44
sg46
I0
sg47
I0
sg48
g34
(g35
g36
(lp6206
tp6207
Rp6208
I1
bsg52
g55
sg54
g55
sg56
I454684975
sg57
I0
sg58
I0
sg59
g44
sg60
g44
sg62
g55
sg63
g55
sg65
I0
sg67
I0
sg68
I1
sg69
g44
sg70
I0
sg71
I17
sg72
I0
sg73
I0
sg74
g44
sg75
g6061
sg77
I0
sg78
g6062
sg80
g55
sg81
g6063
sg83
I1
sg84
I0
sg85
I0
stp6209
Rp6210
I1
bsVMemberList
p6211
g34
(g35
g36
(lp6212
tp6213
Rp6214
I1
bsVPYQuanPin
p6215
Vspanclassemojiemoji2600spantaiyangspanclassemojiemoji2600span
p6216
sVRemarkPYInitial
p6217
g55
sVSex
p6218
I0
sVAppAccountFlag
p6219
I0
sVVerifyFlag
p6220
I0
sVProvince
p6221
g55
sVKeyWord
p6222
g55
sVRemarkName
p6223
g55
sVPYInitial
p6224
VSPANCLASSEMOJIEMOJI2600SPANTYSPANCLASSEMOJIEMOJI2600SPAN
p6225
sVIsOwner
p6226
I0
sVChatRoomId
p6227
I0
sVHideInputBarFlag
p6228
I0
sVEncryChatRoomId
p6229
g55
sVAttrStatus
p6230
I0
sVSnsFlag
p6231
I0
sVMemberCount
p6232
I37
sVOwnerUin
p6233
I0
sVAlias
p6234
g55
sg6090
NsVSignature
p6235
g55
sVContactFlag
p6236
I3
sVNickName
p6237
V\u2600\u592a\u9633\u2600
p6238
sVRemarkPYQuanPin
p6239
g55
sVHeadImgUrl
p6240
V/cgi-bin/mmwebwx-bin/webwxgetheadimg?seq=683308922&username=@@5f2e8359b0dfa94bf2a4ead23e179e3b8320d87448619ee240994defb90ca4a2&skey=@crypt_d5e09b21_f6d4eb8ff700a7cb445282cdd5f699d7
p6241
sVUin
p6242
I0
sVStarFriend
p6243
I0
sVStatues
p6244
I0
stp6245
Rp6246
I1
bag34
(g6049
g39
(dp6247
VUserName
p6248
V@@4a7fb4eb5c6934a18659ed6bcfff8e8b8f450b70658880eff88fc13713069738
p6249
sVCity
p6250
g55
sVDisplayName
p6251
g55
sVUniFriend
p6252
I0
sg6056
g34
(g38
g39
(dp6253
g41
g31
sg43
g44
sg45
g44
sg46
I0
sg47
I0
sg48
g34
(g35
g36
(lp6254
tp6255
Rp6256
I1
bsg52
g55
sg54
g55
sg56
I454684975
sg57
I0
sg58
I0
sg59
g44
sg60
g44
sg62
g55
sg63
g55
sg65
I0
sg67
I0
sg68
I1
sg69
g44
sg70
I0
sg71
I17
sg72
I0
sg73
I0
sg74
g44
sg75
g6061
sg77
I0
sg78
g6062
sg80
g55
sg81
g6063
sg83
I1
sg84
I0
sg85
I0
stp6257
Rp6258
I1
bsVMemberList
p6259
g34
(g35
g36
(lp6260
tp6261
Rp6262
I1
bsVPYQuanPin
p6263
Vxiaoyanjingmen
p6264
sVRemarkPYInitial
p6265
g55
sVSex
p6266
I0
sVAppAccountFlag
p6267
I0
sVVerifyFlag
p6268
I0
sVProvince
p6269
g55
sVKeyWord
p6270
g55
sVRemarkName
p6271
g55
sVPYInitial
p6272
VXYJM
p6273
sVIsOwner
p6274
I0
sVChatRoomId
p6275
I0
sVHideInputBarFlag
p6276
I0
sVEncryChatRoomId
p6277
g55
sVAttrStatus
p6278
I0
sVSnsFlag
p6279
I0
sVMemberCount
p6280
I0
sVOwnerUin
p6281
I0
sVAlias
p6282
g55
sg6090
NsVSignature
p6283
g55
sVContactFlag
p6284
I1
sVNickName
p6285
V\u5c0f\u773c\u775b\u4eec
p6286
sVRemarkPYQuanPin
p6287
g55
sVHeadImgUrl
p6288
V/cgi-bin/mmwebwx-bin/webwxgetheadimg?seq=654159025&username=@@4a7fb4eb5c6934a18659ed6bcfff8e8b8f450b70658880eff88fc13713069738&skey=@crypt_d5e09b21_f6d4eb8ff700a7cb445282cdd5f699d7
p6289
sVUin
p6290
I0
sVStarFriend
p6291
I0
sVStatues
p6292
I0
stp6293
Rp6294
I1
bag34
(g6049
g39
(dp6295
VUserName
p6296
V@@965a11646f584d00ba24ff28417ebf6f71573ba2a3f565b837302fdebfc7b4ea
p6297
sVCity
p6298
g55
sVDisplayName
p6299
g55
sVUniFriend
p6300
I0
sg6056
g34
(g38
g39
(dp6301
g41
g31
sg43
g44
sg45
g44
sg46
I0
sg47
I0
sg48
g34
(g35
g36
(lp6302
tp6303
Rp6304
I1
bsg52
g55
sg54
g55
sg56
I454684975
sg57
I0
sg58
I0
sg59
g44
sg60
g44
sg62
g55
sg63
g55
sg65
I0
sg67
I0
sg68
I1
sg69
g44
sg70
I0
sg71
I17
sg72
I0
sg73
I0
sg74
g44
sg75
g6061
sg77
I0
sg78
g6062
sg80
g55
sg81
g6063
sg83
I1
sg84
I0
sg85
I0
stp6305
Rp6306
I1
bsVMemberList
p6307
g34
(g35
g36
(lp6308
tp6309
Rp6310
I1
bsVPYQuanPin
p6311
Vjielvjianbokaopuqingnianyijiyiqibaochenxuan
p6312
sVRemarkPYInitial
p6313
g55
sVSex
p6314
I0
sVAppAccountFlag
p6315
I0
sVVerifyFlag
p6316
I0
sVProvince
p6317
g55
sVKeyWord
p6318
g55
sVRemarkName
p6319
g55
sVPYInitial
p6320
VJLJBKPQNYJYQBCX
p6321
sVIsOwner
p6322
I0
sVChatRoomId
p6323
I0
sVHideInputBarFlag
p6324
I0
sVEncryChatRoomId
p6325
g55
sVAttrStatus
p6326
I0
sVSnsFlag
p6327
I0
sVMemberCount
p6328
I0
sVOwnerUin
p6329
I0
sVAlias
p6330
g55
sg6090
NsVSignature
p6331
g55
sVContactFlag
p6332
I1
sVNickName
p6333
V\u9889,\u5415\u5251\u6ce2,\u9760\u8c31\u9752\u5e74,\u4e00\u671f\u4e00\u7948,\u9c8d\u6668\u8f69
p6334
sVRemarkPYQuanPin
p6335
g55
sVHeadImgUrl
p6336
V/cgi-bin/mmwebwx-bin/webwxgetheadimg?seq=638577162&username=@@965a11646f584d00ba24ff28417ebf6f71573ba2a3f565b837302fdebfc7b4ea&skey=@crypt_d5e09b21_f6d4eb8ff700a7cb445282cdd5f699d7
p6337
sVUin
p6338
I0
sVStarFriend
p6339
I0
sVStatues
p6340
I0
stp6341
Rp6342
I1
bag34
(g6049
g39
(dp6343
VUserName
p6344
V@@0133165529cb26ae785ed767b4a2473ff179071c96413d6ab4d3dd96a36a9c41
p6345
sVCity
p6346
g55
sVDisplayName
p6347
g55
sVUniFriend
p6348
I0
sg6056
g34
(g38
g39
(dp6349
g41
g31
sg43
g44
sg45
g44
sg46
I0
sg47
I0
sg48
g34
(g35
g36
(lp6350
tp6351
Rp6352
I1
bsg52
g55
sg54
g55
sg56
I454684975
sg57
I0
sg58
I0
sg59
g44
sg60
g44
sg62
g55
sg63
g55
sg65
I0
sg67
I0
sg68
I1
sg69
g44
sg70
I0
sg71
I17
sg72
I0
sg73
I0
sg74
g44
sg75
g6061
sg77
I0
sg78
g6062
sg80
g55
sg81
g6063
sg83
I1
sg84
I0
sg85
I0
stp6353
Rp6354
I1
bsVMemberList
p6355
g34
(g35
g36
(lp6356
tp6357
Rp6358
I1
bsVPYQuanPin
p6359
Vlijiaqun
p6360
sVRemarkPYInitial
p6361
g55
sVSex
p6362
I0
sVAppAccountFlag
p6363
I0
sVVerifyFlag
p6364
I0
sVProvince
p6365
g55
sVKeyWord
p6366
g55
sVRemarkName
p6367
g55
sVPYInitial
p6368
VLJQ
p6369
sVIsOwner
p6370
I0
sVChatRoomId
p6371
I0
sVHideInputBarFlag
p6372
I0
sVEncryChatRoomId
p6373
g55
sVAttrStatus
p6374
I0
sVSnsFlag
p6375
I0
sVMemberCount
p6376
I0
sVOwnerUin
p6377
I0
sVAlias
p6378
g55
sg6090
NsVSignature
p6379
g55
sVContactFlag
p6380
I1
sVNickName
p6381
V\u674e\u5bb6\u7fa4
p6382
sVRemarkPYQuanPin
p6383
g55
sVHeadImgUrl
p6384
V/cgi-bin/mmwebwx-bin/webwxgetheadimg?seq=636552467&username=@@0133165529cb26ae785ed767b4a2473ff179071c96413d6ab4d3dd96a36a9c41&skey=@crypt_d5e09b21_f6d4eb8ff700a7cb445282cdd5f699d7
p6385
sVUin
p6386
I0
sVStarFriend
p6387
I0
sVStatues
p6388
I0
stp6389
Rp6390
I1
bag34
(g6049
g39
(dp6391
VUserName
p6392
V@@44f1daf23228ba0278302ceff93518ea0bcb4a14603105bae49d5e7e134946a1
p6393
sVCity
p6394
g55
sVDisplayName
p6395
g55
sVUniFriend
p6396
I0
sg6056
g34
(g38
g39
(dp6397
g41
g31
sg43
g44
sg45
g44
sg46
I0
sg47
I0
sg48
g34
(g35
g36
(lp6398
tp6399
Rp6400
I1
bsg52
g55
sg54
g55
sg56
I454684975
sg57
I0
sg58
I0
sg59
g44
sg60
g44
sg62
g55
sg63
g55
sg65
I0
sg67
I0
sg68
I1
sg69
g44
sg70
I0
sg71
I17
sg72
I0
sg73
I0
sg74
g44
sg75
g6061
sg77
I0
sg78
g6062
sg80
g55
sg81
g6063
sg83
I1
sg84
I0
sg85
I0
stp6401
Rp6402
I1
bsVMemberList
p6403
g34
(g35
g36
(lp6404
tp6405
Rp6406
I1
bsVPYQuanPin
p6407
Vxihunongchangxiaoxuetongxue
p6408
sVRemarkPYInitial
p6409
g55
sVSex
p6410
I0
sVAppAccountFlag
p6411
I0
sVVerifyFlag
p6412
I0
sVProvince
p6413
g55
sVKeyWord
p6414
g55
sVRemarkName
p6415
g55
sVPYInitial
p6416
VXHNCXXTX
p6417
sVIsOwner
p6418
I0
sVChatRoomId
p6419
I0
sVHideInputBarFlag
p6420
I0
sVEncryChatRoomId
p6421
g55
sVAttrStatus
p6422
I0
sVSnsFlag
p6423
I0
sVMemberCount
p6424
I0
sVOwnerUin
p6425
I0
sVAlias
p6426
g55
sg6090
NsVSignature
p6427
g55
sVContactFlag
p6428
I1
sVNickName
p6429
V\u897f\u6e56\u519c\u573a\u5c0f\u5b66\u540c\u5b66
p6430
sVRemarkPYQuanPin
p6431
g55
sVHeadImgUrl
p6432
V/cgi-bin/mmwebwx-bin/webwxgetheadimg?seq=654192798&username=@@44f1daf23228ba0278302ceff93518ea0bcb4a14603105bae49d5e7e134946a1&skey=@crypt_d5e09b21_f6d4eb8ff700a7cb445282cdd5f699d7
p6433
sVUin
p6434
I0
sVStarFriend
p6435
I0
sVStatues
p6436
I0
stp6437
Rp6438
I1
bag34
(g6049
g39
(dp6439
VUserName
p6440
V@@a1a7ae3157cc1d38bae55fd1bca6df2f21636de8e303da7f5f366d009ca2ad91
p6441
sVCity
p6442
g55
sVDisplayName
p6443
g55
sVUniFriend
p6444
I0
sg6056
g34
(g38
g39
(dp6445
g41
g31
sg43
g44
sg45
g44
sg46
I0
sg47
I0
sg48
g34
(g35
g36
(lp6446
tp6447
Rp6448
I1
bsg52
g55
sg54
g55
sg56
I454684975
sg57
I0
sg58
I0
sg59
g44
sg60
g44
sg62
g55
sg63
g55
sg65
I0
sg67
I0
sg68
I1
sg69
g44
sg70
I0
sg71
I17
sg72
I0
sg73
I0
sg74
g44
sg75
g6061
sg77
I0
sg78
g6062
sg80
g55
sg81
g6063
sg83
I1
sg84
I0
sg85
I0
stp6449
Rp6450
I1
bsVMemberList
p6451
g34
(g35
g36
(lp6452
tp6453
Rp6454
I1
bsVPYQuanPin
p6455
V217
p6456
sVRemarkPYInitial
p6457
g55
sVSex
p6458
I0
sVAppAccountFlag
p6459
I0
sVVerifyFlag
p6460
I0
sVProvince
p6461
g55
sVKeyWord
p6462
g55
sVRemarkName
p6463
g55
sVPYInitial
p6464
V217
p6465
sVIsOwner
p6466
I1
sVChatRoomId
p6467
I0
sVHideInputBarFlag
p6468
I0
sVEncryChatRoomId
p6469
g55
sVAttrStatus
p6470
I0
sVSnsFlag
p6471
I0
sVMemberCount
p6472
I0
sVOwnerUin
p6473
I0
sVAlias
p6474
g55
sg6090
NsVSignature
p6475
g55
sVContactFlag
p6476
I1
sVNickName
p6477
V217
p6478
sVRemarkPYQuanPin
p6479
g55
sVHeadImgUrl
p6480
V/cgi-bin/mmwebwx-bin/webwxgetheadimg?seq=654168326&username=@@a1a7ae3157cc1d38bae55fd1bca6df2f21636de8e303da7f5f366d009ca2ad91&skey=@crypt_d5e09b21_f6d4eb8ff700a7cb445282cdd5f699d7
p6481
sVUin
p6482
I0
sVStarFriend
p6483
I0
sVStatues
p6484
I0
stp6485
Rp6486
I1
bag34
(g6049
g39
(dp6487
VUserName
p6488
V@@e36bb572d51ddb6bfe23f60c2f4a6a02d8576c906f406b101c51708298bd7baa
p6489
sVCity
p6490
g55
sVDisplayName
p6491
g55
sVUniFriend
p6492
I0
sg6056
g34
(g38
g39
(dp6493
g41
g31
sg43
g44
sg45
g44
sg46
I0
sg47
I0
sg48
g34
(g35
g36
(lp6494
tp6495
Rp6496
I1
bsg52
g55
sg54
g55
sg56
I454684975
sg57
I0
sg58
I0
sg59
g44
sg60
g44
sg62
g55
sg63
g55
sg65
I0
sg67
I0
sg68
I1
sg69
g44
sg70
I0
sg71
I17
sg72
I0
sg73
I0
sg74
g44
sg75
g6061
sg77
I0
sg78
g6062
sg80
g55
sg81
g6063
sg83
I1
sg84
I0
sg85
I0
stp6497
Rp6498
I1
bsVMemberList
p6499
g34
(g35
g36
(lp6500
tp6501
Rp6502
I1
bsVPYQuanPin
p6503
Vseruojiuchazu
p6504
sVRemarkPYInitial
p6505
g55
sVSex
p6506
I0
sVAppAccountFlag
p6507
I0
sVVerifyFlag
p6508
I0
sVProvince
p6509
g55
sVKeyWord
p6510
g55
sVRemarkName
p6511
g55
sVPYInitial
p6512
VSRJCZ
p6513
sVIsOwner
p6514
I0
sVChatRoomId
p6515
I0
sVHideInputBarFlag
p6516
I0
sVEncryChatRoomId
p6517
g55
sVAttrStatus
p6518
I0
sVSnsFlag
p6519
I0
sVMemberCount
p6520
I0
sVOwnerUin
p6521
I0
sVAlias
p6522
g55
sg6090
NsVSignature
p6523
g55
sVContactFlag
p6524
I1
sVNickName
p6525
V\u8272\u5f31\u7ea0\u5bdf\u7ec4
p6526
sVRemarkPYQuanPin
p6527
g55
sVHeadImgUrl
p6528
V/cgi-bin/mmwebwx-bin/webwxgetheadimg?seq=676041165&username=@@e36bb572d51ddb6bfe23f60c2f4a6a02d8576c906f406b101c51708298bd7baa&skey=@crypt_d5e09b21_f6d4eb8ff700a7cb445282cdd5f699d7
p6529
sVUin
p6530
I0
sVStarFriend
p6531
I0
sVStatues
p6532
I0
stp6533
Rp6534
I1
bag34
(g6049
g39
(dp6535
VUserName
p6536
V@@fa6388e8ae3d1d09430e715c1197ce924690e0c7504b5f6a1f3baafe913b3d7d
p6537
sVCity
p6538
g55
sVDisplayName
p6539
g55
sVUniFriend
p6540
I0
sg6056
g34
(g38
g39
(dp6541
g41
g31
sg43
g44
sg45
g44
sg46
I0
sg47
I0
sg48
g34
(g35
g36
(lp6542
tp6543
Rp6544
I1
bsg52
g55
sg54
g55
sg56
I454684975
sg57
I0
sg58
I0
sg59
g44
sg60
g44
sg62
g55
sg63
g55
sg65
I0
sg67
I0
sg68
I1
sg69
g44
sg70
I0
sg71
I17
sg72
I0
sg73
I0
sg74
g44
sg75
g6061
sg77
I0
sg78
g6062
sg80
g55
sg81
g6063
sg83
I1
sg84
I0
sg85
I0
stp6545
Rp6546
I1
bsVMemberList
p6547
g34
(g35
g36
(lp6548
tp6549
Rp6550
I1
bsVPYQuanPin
p6551
Vgouzi
p6552
sVRemarkPYInitial
p6553
g55
sVSex
p6554
I0
sVAppAccountFlag
p6555
I0
sVVerifyFlag
p6556
I0
sVProvince
p6557
g55
sVKeyWord
p6558
g55
sVRemarkName
p6559
g55
sVPYInitial
p6560
VGZ
p6561
sVIsOwner
p6562
I1
sVChatRoomId
p6563
I0
sVHideInputBarFlag
p6564
I0
sVEncryChatRoomId
p6565
g55
sVAttrStatus
p6566
I0
sVSnsFlag
p6567
I0
sVMemberCount
p6568
I0
sVOwnerUin
p6569
I0
sVAlias
p6570
g55
sg6090
NsVSignature
p6571
g55
sVContactFlag
p6572
I3
sVNickName
p6573
V\u72d7\u5b50
p6574
sVRemarkPYQuanPin
p6575
g55
sVHeadImgUrl
p6576
V/cgi-bin/mmwebwx-bin/webwxgetheadimg?seq=683257774&username=@@fa6388e8ae3d1d09430e715c1197ce924690e0c7504b5f6a1f3baafe913b3d7d&skey=@crypt_d5e09b21_f6d4eb8ff700a7cb445282cdd5f699d7
p6577
sVUin
p6578
I0
sVStarFriend
p6579
I0
sVStatues
p6580
I1
stp6581
Rp6582
I1
bag34
(g6049
g39
(dp6583
VUserName
p6584
V@@a2f886e2ef193e6f9c3a11a2797a82f39fd3258f042242fa1458a9bee5f5f764
p6585
sVCity
p6586
g55
sVDisplayName
p6587
g55
sVUniFriend
p6588
I0
sg6056
g34
(g38
g39
(dp6589
g41
g31
sg43
g44
sg45
g44
sg46
I0
sg47
I0
sg48
g34
(g35
g36
(lp6590
tp6591
Rp6592
I1
bsg52
g55
sg54
g55
sg56
I454684975
sg57
I0
sg58
I0
sg59
g44
sg60
g44
sg62
g55
sg63
g55
sg65
I0
sg67
I0
sg68
I1
sg69
g44
sg70
I0
sg71
I17
sg72
I0
sg73
I0
sg74
g44
sg75
g6061
sg77
I0
sg78
g6062
sg80
g55
sg81
g6063
sg83
I1
sg84
I0
sg85
I0
stp6593
Rp6594
I1
bsVMemberList
p6595
g34
(g35
g36
(lp6596
tp6597
Rp6598
I1
bsVPYQuanPin
p6599
Vhuaihuaxiang
p6600
sVRemarkPYInitial
p6601
g55
sVSex
p6602
I0
sVAppAccountFlag
p6603
I0
sVVerifyFlag
p6604
I0
sVProvince
p6605
g55
sVKeyWord
p6606
g55
sVRemarkName
p6607
g55
sVPYInitial
p6608
VHHX
p6609
sVIsOwner
p6610
I0
sVChatRoomId
p6611
I0
sVHideInputBarFlag
p6612
I0
sVEncryChatRoomId
p6613
g55
sVAttrStatus
p6614
I0
sVSnsFlag
p6615
I0
sVMemberCount
p6616
I0
sVOwnerUin
p6617
I0
sVAlias
p6618
g55
sg6090
NsVSignature
p6619
g55
sVContactFlag
p6620
I3
sVNickName
p6621
V\u69d0\u82b1\u9999
p6622
sVRemarkPYQuanPin
p6623
g55
sVHeadImgUrl
p6624
V/cgi-bin/mmwebwx-bin/webwxgetheadimg?seq=683269125&username=@@a2f886e2ef193e6f9c3a11a2797a82f39fd3258f042242fa1458a9bee5f5f764&skey=@crypt_d5e09b21_f6d4eb8ff700a7cb445282cdd5f699d7
p6625
sVUin
p6626
I0
sVStarFriend
p6627
I0
sVStatues
p6628
I0
stp6629
Rp6630
I1
bag34
(g6049
g39
(dp6631
VUserName
p6632
V@@026ca486f56a70d5c2c8457baa5f2aa2a9b3d0d4264ca88558555f65aea7625d
p6633
sVCity
p6634
g55
sVDisplayName
p6635
g55
sVUniFriend
p6636
I0
sg6056
g34
(g38
g39
(dp6637
g41
g31
sg43
g44
sg45
g44
sg46
I0
sg47
I0
sg48
g34
(g35
g36
(lp6638
tp6639
Rp6640
I1
bsg52
g55
sg54
g55
sg56
I454684975
sg57
I0
sg58
I0
sg59
g44
sg60
g44
sg62
g55
sg63
g55
sg65
I0
sg67
I0
sg68
I1
sg69
g44
sg70
I0
sg71
I17
sg72
I0
sg73
I0
sg74
g44
sg75
g6061
sg77
I0
sg78
g6062
sg80
g55
sg81
g6063
sg83
I1
sg84
I0
sg85
I0
stp6641
Rp6642
I1
bsVMemberList
p6643
g34
(g35
g36
(lp6644
tp6645
Rp6646
I1
bsVPYQuanPin
p6647
VNyanpassmeiwoshuaiMLG360zhandui
p6648
sVRemarkPYInitial
p6649
g55
sVSex
p6650
I0
sVAppAccountFlag
p6651
I0
sVVerifyFlag
p6652
I0
sVProvince
p6653
g55
sVKeyWord
p6654
g55
sVRemarkName
p6655
g55
sVPYInitial
p6656
VNYANPASSMWSMLG360ZD
p6657
sVIsOwner
p6658
I0
sVChatRoomId
p6659
I0
sVHideInputBarFlag
p6660
I0
sVEncryChatRoomId
p6661
g55
sVAttrStatus
p6662
I0
sVSnsFlag
p6663
I0
sVMemberCount
p6664
I0
sVOwnerUin
p6665
I0
sVAlias
p6666
g55
sg6090
NsVSignature
p6667
g55
sVContactFlag
p6668
I1
sVNickName
p6669
VNyanpass\u6c92\u6211\u5e25MLG 360\u6230\u968a
p6670
sVRemarkPYQuanPin
p6671
g55
sVHeadImgUrl
p6672
V/cgi-bin/mmwebwx-bin/webwxgetheadimg?seq=638570786&username=@@026ca486f56a70d5c2c8457baa5f2aa2a9b3d0d4264ca88558555f65aea7625d&skey=@crypt_d5e09b21_f6d4eb8ff700a7cb445282cdd5f699d7
p6673
sVUin
p6674
I0
sVStarFriend
p6675
I0
sVStatues
p6676
I1
stp6677
Rp6678
I1
bag34
(g6049
g39
(dp6679
VUserName
p6680
V@@db89ec6a958099269e034a1179911f6a0b1a843433c10da0c9beb10d7f555fdf
p6681
sVCity
p6682
g55
sVDisplayName
p6683
g55
sVUniFriend
p6684
I0
sg6056
g34
(g38
g39
(dp6685
g41
g31
sg43
g44
sg45
g44
sg46
I0
sg47
I0
sg48
g34
(g35
g36
(lp6686
tp6687
Rp6688
I1
bsg52
g55
sg54
g55
sg56
I454684975
sg57
I0
sg58
I0
sg59
g44
sg60
g44
sg62
g55
sg63
g55
sg65
I0
sg67
I0
sg68
I1
sg69
g44
sg70
I0
sg71
I17
sg72
I0
sg73
I0
sg74
g44
sg75
g6061
sg77
I0
sg78
g6062
sg80
g55
sg81
g6063
sg83
I1
sg84
I0
sg85
I0
stp6689
Rp6690
I1
bsVMemberList
p6691
g34
(g35
g36
(lp6692
tp6693
Rp6694
I1
bsVPYQuanPin
p6695
Vxinhexinxindongli
p6696
sVRemarkPYInitial
p6697
g55
sVSex
p6698
I0
sVAppAccountFlag
p6699
I0
sVVerifyFlag
p6700
I0
sVProvince
p6701
g55
sVKeyWord
p6702
g55
sVRemarkName
p6703
g55
sVPYInitial
p6704
VXHXXDL
p6705
sVIsOwner
p6706
I0
sVChatRoomId
p6707
I0
sVHideInputBarFlag
p6708
I0
sVEncryChatRoomId
p6709
g55
sVAttrStatus
p6710
I0
sVSnsFlag
p6711
I0
sVMemberCount
p6712
I0
sVOwnerUin
p6713
I0
sVAlias
p6714
g55
sg6090
NsVSignature
p6715
g55
sVContactFlag
p6716
I3
sVNickName
p6717
V\u65b0\u6838\u5fc3\u65b0\u52a8\u529b
p6718
sVRemarkPYQuanPin
p6719
g55
sVHeadImgUrl
p6720
V/cgi-bin/mmwebwx-bin/webwxgetheadimg?seq=683287025&username=@@db89ec6a958099269e034a1179911f6a0b1a843433c10da0c9beb10d7f555fdf&skey=@crypt_d5e09b21_f6d4eb8ff700a7cb445282cdd5f699d7
p6721
sVUin
p6722
I0
sVStarFriend
p6723
I0
sVStatues
p6724
I0
stp6725
Rp6726
I1
bag34
(g6049
g39
(dp6727
VUserName
p6728
V@@5588e140f01d4c74e9dfbb51ef84dbd8a1cbeb174edea00e133e6207cee1485c
p6729
sVCity
p6730
g55
sVDisplayName
p6731
g55
sVUniFriend
p6732
I0
sg6056
g34
(g38
g39
(dp6733
g41
g31
sg43
g44
sg45
g44
sg46
I0
sg47
I0
sg48
g34
(g35
g36
(lp6734
tp6735
Rp6736
I1
bsg52
g55
sg54
g55
sg56
I454684975
sg57
I0
sg58
I0
sg59
g44
sg60
g44
sg62
g55
sg63
g55
sg65
I0
sg67
I0
sg68
I1
sg69
g44
sg70
I0
sg71
I17
sg72
I0
sg73
I0
sg74
g44
sg75
g6061
sg77
I0
sg78
g6062
sg80
g55
sg81
g6063
sg83
I1
sg84
I0
sg85
I0
stp6737
Rp6738
I1
bsVMemberList
p6739
g34
(g35
g36
(lp6740
tp6741
Rp6742
I1
bsVPYQuanPin
p6743
Vwokuangzaichuanhaobuhao
p6744
sVRemarkPYInitial
p6745
g55
sVSex
p6746
I0
sVAppAccountFlag
p6747
I0
sVVerifyFlag
p6748
I0
sVProvince
p6749
g55
sVKeyWord
p6750
g55
sVRemarkName
p6751
g55
sVPYInitial
p6752
VWKZCHBH
p6753
sVIsOwner
p6754
I1
sVChatRoomId
p6755
I0
sVHideInputBarFlag
p6756
I0
sVEncryChatRoomId
p6757
g55
sVAttrStatus
p6758
I0
sVSnsFlag
p6759
I0
sVMemberCount
p6760
I0
sVOwnerUin
p6761
I0
sVAlias
p6762
g55
sg6090
NsVSignature
p6763
g55
sVContactFlag
p6764
I3
sVNickName
p6765
V\u6211\u51b5\u5728\u5ddd\u597d\u4e0d\u597d
p6766
sVRemarkPYQuanPin
p6767
g55
sVHeadImgUrl
p6768
V/cgi-bin/mmwebwx-bin/webwxgetheadimg?seq=683302312&username=@@5588e140f01d4c74e9dfbb51ef84dbd8a1cbeb174edea00e133e6207cee1485c&skey=@crypt_d5e09b21_f6d4eb8ff700a7cb445282cdd5f699d7
p6769
sVUin
p6770
I0
sVStarFriend
p6771
I0
sVStatues
p6772
I0
stp6773
Rp6774
I1
bag34
(g6049
g39
(dp6775
VUserName
p6776
V@@a39f65c8b0d95c85956230c38f5d062ae298d16e32247e791b148d462ae40e03
p6777
sVCity
p6778
g55
sVDisplayName
p6779
g55
sVUniFriend
p6780
I0
sg6056
g34
(g38
g39
(dp6781
g41
g31
sg43
g44
sg45
g44
sg46
I0
sg47
I0
sg48
g34
(g35
g36
(lp6782
tp6783
Rp6784
I1
bsg52
g55
sg54
g55
sg56
I454684975
sg57
I0
sg58
I0
sg59
g44
sg60
g44
sg62
g55
sg63
g55
sg65
I0
sg67
I0
sg68
I1
sg69
g44
sg70
I0
sg71
I17
sg72
I0
sg73
I0
sg74
g44
sg75
g6061
sg77
I0
sg78
g6062
sg80
g55
sg81
g6063
sg83
I1
sg84
I0
sg85
I0
stp6785
Rp6786
I1
bsVMemberList
p6787
g34
(g35
g36
(lp6788
tp6789
Rp6790
I1
bsVPYQuanPin
p6791
Vshiyinjiankong
p6792
sVRemarkPYInitial
p6793
g55
sVSex
p6794
I0
sVAppAccountFlag
p6795
I0
sVVerifyFlag
p6796
I0
sVProvince
p6797
g55
sVKeyWord
p6798
g55
sVRemarkName
p6799
g55
sVPYInitial
p6800
VSYJK
p6801
sVIsOwner
p6802
I0
sVChatRoomId
p6803
I0
sVHideInputBarFlag
p6804
I0
sVEncryChatRoomId
p6805
g55
sVAttrStatus
p6806
I0
sVSnsFlag
p6807
I0
sVMemberCount
p6808
I0
sVOwnerUin
p6809
I0
sVAlias
p6810
g55
sg6090
NsVSignature
p6811
g55
sVContactFlag
p6812
I3
sVNickName
p6813
V\u77f3\u94f6\u76d1\u63a7
p6814
sVRemarkPYQuanPin
p6815
g55
sVHeadImgUrl
p6816
V/cgi-bin/mmwebwx-bin/webwxgetheadimg?seq=683302793&username=@@a39f65c8b0d95c85956230c38f5d062ae298d16e32247e791b148d462ae40e03&skey=@crypt_d5e09b21_f6d4eb8ff700a7cb445282cdd5f699d7
p6817
sVUin
p6818
I0
sVStarFriend
p6819
I0
sVStatues
p6820
I0
stp6821
Rp6822
I1
bag34
(g6049
g39
(dp6823
VUserName
p6824
V@@5ce045abe8000f07acfcc680c2d0ad63e2c4d0533337fa7cb3c800ca8bee8b9e
p6825
sVCity
p6826
g55
sVDisplayName
p6827
g55
sVUniFriend
p6828
I0
sg6056
g34
(g38
g39
(dp6829
g41
g31
sg43
g44
sg45
g44
sg46
I0
sg47
I0
sg48
g34
(g35
g36
(lp6830
tp6831
Rp6832
I1
bsg52
g55
sg54
g55
sg56
I454684975
sg57
I0
sg58
I0
sg59
g44
sg60
g44
sg62
g55
sg63
g55
sg65
I0
sg67
I0
sg68
I1
sg69
g44
sg70
I0
sg71
I17
sg72
I0
sg73
I0
sg74
g44
sg75
g6061
sg77
I0
sg78
g6062
sg80
g55
sg81
g6063
sg83
I1
sg84
I0
sg85
I0
stp6833
Rp6834
I1
bsVMemberList
p6835
g34
(g35
g36
(lp6836
tp6837
Rp6838
I1
bsVPYQuanPin
p6839
Vshiyinyunwei
p6840
sVRemarkPYInitial
p6841
g55
sVSex
p6842
I0
sVAppAccountFlag
p6843
I0
sVVerifyFlag
p6844
I0
sVProvince
p6845
g55
sVKeyWord
p6846
g55
sVRemarkName
p6847
g55
sVPYInitial
p6848
VSYYW
p6849
sVIsOwner
p6850
I0
sVChatRoomId
p6851
I0
sVHideInputBarFlag
p6852
I0
sVEncryChatRoomId
p6853
g55
sVAttrStatus
p6854
I0
sVSnsFlag
p6855
I0
sVMemberCount
p6856
I0
sVOwnerUin
p6857
I0
sVAlias
p6858
g55
sg6090
NsVSignature
p6859
g55
sVContactFlag
p6860
I3
sVNickName
p6861
V\u77f3\u94f6\u8fd0\u7ef4
p6862
sVRemarkPYQuanPin
p6863
g55
sVHeadImgUrl
p6864
V/cgi-bin/mmwebwx-bin/webwxgetheadimg?seq=683299002&username=@@5ce045abe8000f07acfcc680c2d0ad63e2c4d0533337fa7cb3c800ca8bee8b9e&skey=@crypt_d5e09b21_f6d4eb8ff700a7cb445282cdd5f699d7
p6865
sVUin
p6866
I0
sVStarFriend
p6867
I0
sVStatues
p6868
I0
stp6869
Rp6870
I1
batp6871
Rp6872
I1
bsS'nickName'
p6873
g6062
sS'mpList'
p6874
g34
(g35
g36
(lp6875
g34
(citchat.storage.templates
MassivePlatform
p6876
g39
(dp6877
VUserName
p6878
V@408cf33adef205cdd183df46ffd86a7f
p6879
sVCity
p6880
V\u94f6\u5ddd
p6881
sVSnsFlag
p6882
I0
sVDisplayName
p6883
g55
sVUniFriend
p6884
I0
sVMemberCount
p6885
I0
sVOwnerUin
p6886
I0
sVMemberList
p6887
g51
sVAlias
p6888
g55
sVPYQuanPin
p6889
Vnyanpassdenaodong
p6890
sVSignature
p6891
V\u65e5\u5e38\u5356\u840c
p6892
sVRemarkPYInitial
p6893
g55
sVContactFlag
p6894
I3
sVUin
p6895
I0
sVNickName
p6896
Vnyanpass\u7684\u8111\u6d1e
p6897
sVAppAccountFlag
p6898
I0
sVVerifyFlag
p6899
I8
sVRemarkPYQuanPin
p6900
g55
sVHeadImgUrl
p6901
V/cgi-bin/mmwebwx-bin/webwxgeticon?seq=624460103&username=@408cf33adef205cdd183df46ffd86a7f&skey=@crypt_d5e09b21_f6d4eb8ff700a7cb445282cdd5f699d7
p6902
sVKeyWord
p6903
Vgh_
p6904
sVProvince
p6905
V\u5b81\u590f
p6906
sVPYInitial
p6907
VNYANPASSDND
p6908
sVRemarkName
p6909
g55
sVIsOwner
p6910
I0
sVSex
p6911
I0
sVStarFriend
p6912
I0
sVHideInputBarFlag
p6913
I0
sVChatRoomId
p6914
I0
sVEncryChatRoomId
p6915
g55
sVAttrStatus
p6916
I0
sVStatues
p6917
I0
stp6918
Rp6919
I1
bag34
(g6876
g39
(dp6920
VUserName
p6921
V@f4a6f35d13b97c0f67a0d070b3ee9ea1
p6922
sVCity
p6923
V\u6d66\u4e1c\u65b0\u533a
p6924
sVSnsFlag
p6925
I0
sVDisplayName
p6926
g55
sVUniFriend
p6927
I0
sVMemberCount
p6928
I0
sVOwnerUin
p6929
I0
sVMemberList
p6930
g51
sVAlias
p6931
g55
sVPYQuanPin
p6932
VlushichuanshuoHS
p6933
sVSignature
p6934
V\u66b4\u96ea\u5a31\u4e50\u7684\u300a\u7089\u77f3\u4f20\u8bf4\uff1a\u9b54\u517d\u82f1\u96c4\u4f20\u300b\u662f\u4e00\u6b3e\u5c06\u5728\u591a\u5e73\u53f0\u4e0a\u63a8\u51fa\u7684\u514d\u8d39\u7b56\u7565\u7c7b\u7ebf\u4e0a\u5361\u724c\u6e38\u620f\u3002
p6935
sVRemarkPYInitial
p6936
g55
sVContactFlag
p6937
I3
sVUin
p6938
I0
sVNickName
p6939
V\u7089\u77f3\u4f20\u8bf4HS
p6940
sVAppAccountFlag
p6941
I0
sVVerifyFlag
p6942
I24
sVRemarkPYQuanPin
p6943
g55
sVHeadImgUrl
p6944
V/cgi-bin/mmwebwx-bin/webwxgeticon?seq=676065342&username=@f4a6f35d13b97c0f67a0d070b3ee9ea1&skey=@crypt_d5e09b21_f6d4eb8ff700a7cb445282cdd5f699d7
p6945
sVKeyWord
p6946
Vgh_
p6947
sVProvince
p6948
V\u4e0a\u6d77
p6949
sVPYInitial
p6950
VLSCSHS
p6951
sVRemarkName
p6952
g55
sVIsOwner
p6953
I0
sVSex
p6954
I0
sVStarFriend
p6955
I0
sVHideInputBarFlag
p6956
I0
sVChatRoomId
p6957
I0
sVEncryChatRoomId
p6958
g55
sVAttrStatus
p6959
I0
sVStatues
p6960
I0
stp6961
Rp6962
I1
bag34
(g6876
g39
(dp6963
VUserName
p6964
V@8d42d18225a0a71e1b2b02b39c36ab7a
p6965
sVCity
p6966
g55
sVSnsFlag
p6967
I0
sVDisplayName
p6968
g55
sVUniFriend
p6969
I0
sVMemberCount
p6970
I0
sVOwnerUin
p6971
I0
sVMemberList
p6972
g51
sVAlias
p6973
g55
sVPYQuanPin
p6974
Vweixinzhifu
p6975
sVSignature
p6976
V\u5e2e\u52a9\u89e3\u51b3\u5fae\u4fe1\u652f\u4ed8\u4e2d\u9047\u5230\u7684\u56f0\u96be\uff0c\u6536\u96c6\u5173\u4e8e\u5fae\u4fe1\u652f\u4ed8\u7684\u5efa\u8bae\u53cd\u9988\u3002
p6977
sVRemarkPYInitial
p6978
g55
sVContactFlag
p6979
I1
sVUin
p6980
I0
sVNickName
p6981
V\u5fae\u4fe1\u652f\u4ed8
p6982
sVAppAccountFlag
p6983
I0
sVVerifyFlag
p6984
I24
sVRemarkPYQuanPin
p6985
g55
sVHeadImgUrl
p6986
V/cgi-bin/mmwebwx-bin/webwxgeticon?seq=622112466&username=@8d42d18225a0a71e1b2b02b39c36ab7a&skey=@crypt_d5e09b21_f6d4eb8ff700a7cb445282cdd5f699d7
p6987
sVKeyWord
p6988
Vgh_
p6989
sVProvince
p6990
V\u5e7f\u4e1c
p6991
sVPYInitial
p6992
VWXZF
p6993
sVRemarkName
p6994
g55
sVIsOwner
p6995
I0
sVSex
p6996
I0
sVStarFriend
p6997
I0
sVHideInputBarFlag
p6998
I0
sVChatRoomId
p6999
I0
sVEncryChatRoomId
p7000
g55
sVAttrStatus
p7001
I0
sVStatues
p7002
I0
stp7003
Rp7004
I1
bag34
(g6876
g39
(dp7005
VUserName
p7006
V@7243fae84537cb10d539daeb4d1aff81
p7007
sVCity
p7008
V\u6df1\u5733
p7009
sVSnsFlag
p7010
I0
sVDisplayName
p7011
g55
sVUniFriend
p7012
I0
sVMemberCount
p7013
I0
sVOwnerUin
p7014
I0
sVMemberList
p7015
g51
sVAlias
p7016
g55
sVPYQuanPin
p7017
VQQanquanzhongxin
p7018
sVSignature
p7019
VQQ\u5b89\u5168\u4e2d\u5fc3\u5b98\u65b9\u5fae\u4fe1\u3002\u52aa\u529b\u4fdd\u62a4\u60a8\u7684QQ\u5b89\u5168\uff0c\u5173\u952e\u65f6\u523b\u53ca\u65f6\u63d0\u9192\uff0c\u968f\u65f6\u638c\u63e1\u5e10\u53f7\u5b89\u5168\u52a8\u6001\u3002
p7020
sVRemarkPYInitial
p7021
g55
sVContactFlag
p7022
I1
sVUin
p7023
I0
sVNickName
p7024
VQQ\u5b89\u5168\u4e2d\u5fc3
p7025
sVAppAccountFlag
p7026
I0
sVVerifyFlag
p7027
I24
sVRemarkPYQuanPin
p7028
g55
sVHeadImgUrl
p7029
V/cgi-bin/mmwebwx-bin/webwxgeticon?seq=631101278&username=@7243fae84537cb10d539daeb4d1aff81&skey=@crypt_d5e09b21_f6d4eb8ff700a7cb445282cdd5f699d7
p7030
sVKeyWord
p7031
Vqqs
p7032
sVProvince
p7033
V\u5e7f\u4e1c
p7034
sVPYInitial
p7035
VQQAQZX
p7036
sVRemarkName
p7037
g55
sVIsOwner
p7038
I0
sVSex
p7039
I0
sVStarFriend
p7040
I0
sVHideInputBarFlag
p7041
I0
sVChatRoomId
p7042
I0
sVEncryChatRoomId
p7043
g55
sVAttrStatus
p7044
I0
sVStatues
p7045
I0
stp7046
Rp7047
I1
bag34
(g6876
g39
(dp7048
VUserName
p7049
V@9e1299bfabaabe67766feaab17247edd
p7050
sVCity
p7051
V\u897f\u57ce
p7052
sVSnsFlag
p7053
I0
sVDisplayName
p7054
g55
sVUniFriend
p7055
I0
sVMemberCount
p7056
I0
sVOwnerUin
p7057
I0
sVMemberList
p7058
g51
sVAlias
p7059
g55
sVPYQuanPin
p7060
Vzhongguojiansheyinxing
p7061
sVSignature
p7062
V\u4e2d\u56fd\u5efa\u8bbe\u94f6\u884c\u5b98\u65b9\u516c\u4f17\u53f7\uff01\u5728\u8fd9\u91cc\u60a8\u53ef\u4ee5\u7545\u4eab\uff1a\u8d26\u6237\u67e5\u8be2\u3001\u751f\u6d3b\u7f34\u8d39\u3001\u6295\u8d44\u7406\u8d22\u3001\u667a\u80fd\u5ba2\u670d\u3001\u4fe1\u7528\u5361\u8d26\u5355\u67e5\u8be2\u3001\u4fe1\u7528\u5361\u8fd8\u6b3e\u7b49\u94f6\u884c\u670d\u52a1\u3002\u66f4\u591a\u7cbe\u5f69\uff0c\u656c\u8bf7\u5173\u6ce8\uff01
p7063
sVRemarkPYInitial
p7064
g55
sVContactFlag
p7065
I1
sVUin
p7066
I0
sVNickName
p7067
V\u4e2d\u56fd\u5efa\u8bbe\u94f6\u884c
p7068
sVAppAccountFlag
p7069
I0
sVVerifyFlag
p7070
I24
sVRemarkPYQuanPin
p7071
g55
sVHeadImgUrl
p7072
V/cgi-bin/mmwebwx-bin/webwxgeticon?seq=676053121&username=@9e1299bfabaabe67766feaab17247edd&skey=@crypt_d5e09b21_f6d4eb8ff700a7cb445282cdd5f699d7
p7073
sVKeyWord
p7074
Vgh_
p7075
sVProvince
p7076
V\u5317\u4eac
p7077
sVPYInitial
p7078
VZGJSYX
p7079
sVRemarkName
p7080
g55
sVIsOwner
p7081
I0
sVSex
p7082
I0
sVStarFriend
p7083
I0
sVHideInputBarFlag
p7084
I0
sVChatRoomId
p7085
I0
sVEncryChatRoomId
p7086
g55
sVAttrStatus
p7087
I0
sVStatues
p7088
I0
stp7089
Rp7090
I1
bag34
(g6876
g39
(dp7091
VUserName
p7092
V@f9911f2c8ccd2a6a50b9c9c83cc215ce
p7093
sVCity
p7094
V\u94f6\u5ddd
p7095
sVSnsFlag
p7096
I0
sVDisplayName
p7097
g55
sVUniFriend
p7098
I0
sVMemberCount
p7099
I0
sVOwnerUin
p7100
I0
sVMemberList
p7101
g51
sVAlias
p7102
g55
sVPYQuanPin
p7103
Vzhongguoliantongningxiakefu
p7104
sVSignature
p7105
V\u5b81\u590f\u8054\u901a\u6b22\u8fce\u60a8\uff01\u5728\u8fd9\u91cc\u60a8\u53ef\u4ee5\u5c0a\u4eab\uff1a\u8bdd\u8d39\u67e5\u8be2\u3001\u8d26\u5355\u67e5\u8be2\u3001\u4f59\u989d\u67e5\u8be2\u3001\u5b9a\u671f\u6d41\u91cf\u63d0\u9192\u3001\u8d26\u5355\u63d0\u9192\u4ee5\u53ca\u54a8\u8be2\u7b49\u4e13\u4e1a\u4f1a\u5458\u670d\u52a1\u3002\u66f4\u591a\u7cbe\u5f69\uff0c\u656c\u8bf7\u5173\u6ce8\uff01
p7106
sVRemarkPYInitial
p7107
g55
sVContactFlag
p7108
I1
sVUin
p7109
I0
sVNickName
p7110
V\u4e2d\u56fd\u8054\u901a\u5b81\u590f\u5ba2\u670d
p7111
sVAppAccountFlag
p7112
I0
sVVerifyFlag
p7113
I24
sVRemarkPYQuanPin
p7114
g55
sVHeadImgUrl
p7115
V/cgi-bin/mmwebwx-bin/webwxgeticon?seq=676088195&username=@f9911f2c8ccd2a6a50b9c9c83cc215ce&skey=@crypt_d5e09b21_f6d4eb8ff700a7cb445282cdd5f699d7
p7116
sVKeyWord
p7117
Vgh_
p7118
sVProvince
p7119
V\u5b81\u590f
p7120
sVPYInitial
p7121
VZGLTNXKF
p7122
sVRemarkName
p7123
g55
sVIsOwner
p7124
I0
sVSex
p7125
I0
sVStarFriend
p7126
I0
sVHideInputBarFlag
p7127
I0
sVChatRoomId
p7128
I0
sVEncryChatRoomId
p7129
g55
sVAttrStatus
p7130
I0
sVStatues
p7131
I0
stp7132
Rp7133
I1
bag34
(g6876
g39
(dp7134
VUserName
p7135
V@c162cd00168148bf25a7adb6cc421633
p7136
sVCity
p7137
V\u897f\u57ce
p7138
sVSnsFlag
p7139
I0
sVDisplayName
p7140
g55
sVUniFriend
p7141
I0
sVMemberCount
p7142
I0
sVOwnerUin
p7143
I0
sVMemberList
p7144
g51
sVAlias
p7145
g55
sVPYQuanPin
p7146
Vzhongguoliantongweiting
p7147
sVSignature
p7148
V\u4e2d\u56fd\u8054\u901a\u5fae\u4fe1\u8425\u4e1a\u5385\uff0c\u4fbf\u6377\u968f\u8eab\uff0c\u67e5\u8be2\u529e\u7406\u4e00\u952e\u641e\u5b9a\uff0c\u8fd8\u6709\u5ba2\u670dMM\u8d34\u5fc3\u89e3\u5fe7\uff0c\u66f4\u591a\u8d44\u8baf\u63a8\u8350\u4e0e\u60a8\u5206\u4eab\u3002\u656c\u8bf7\u5149\u4e34\uff0c\u671f\u5f85\u60ca\u559c\uff01
p7149
sVRemarkPYInitial
p7150
g55
sVContactFlag
p7151
I1
sVUin
p7152
I0
sVNickName
p7153
V\u4e2d\u56fd\u8054\u901a\u5fae\u5385
p7154
sVAppAccountFlag
p7155
I0
sVVerifyFlag
p7156
I24
sVRemarkPYQuanPin
p7157
g55
sVHeadImgUrl
p7158
V/cgi-bin/mmwebwx-bin/webwxgeticon?seq=676088176&username=@c162cd00168148bf25a7adb6cc421633&skey=@crypt_d5e09b21_f6d4eb8ff700a7cb445282cdd5f699d7
p7159
sVKeyWord
p7160
Vgh_
p7161
sVProvince
p7162
V\u5317\u4eac
p7163
sVPYInitial
p7164
VZGLTWT
p7165
sVRemarkName
p7166
g55
sVIsOwner
p7167
I0
sVSex
p7168
I0
sVStarFriend
p7169
I0
sVHideInputBarFlag
p7170
I0
sVChatRoomId
p7171
I0
sVEncryChatRoomId
p7172
g55
sVAttrStatus
p7173
I0
sVStatues
p7174
I0
stp7175
Rp7176
I1
bag34
(g6876
g39
(dp7177
VUserName
p7178
V@f6b3c8cb0545b1ee3fb1fc7e1c0d17b4
p7179
sVCity
p7180
V\u6d77\u6dc0
p7181
sVSnsFlag
p7182
I0
sVDisplayName
p7183
g55
sVUniFriend
p7184
I0
sVMemberCount
p7185
I0
sVOwnerUin
p7186
I0
sVMemberList
p7187
g51
sVAlias
p7188
g55
sVPYQuanPin
p7189
Vxiaobing
p7190
sVSignature
p7191
V\u6211\u662f\u4eba\u5de5\u667a\u80fd\u5fae\u8f6f\u5c0f\u51b0~~
p7192
sVRemarkPYInitial
p7193
g55
sVContactFlag
p7194
I1
sVUin
p7195
I0
sVNickName
p7196
V\u5c0f\u51b0
p7197
sVAppAccountFlag
p7198
I0
sVVerifyFlag
p7199
I24
sVRemarkPYQuanPin
p7200
g55
sVHeadImgUrl
p7201
V/cgi-bin/mmwebwx-bin/webwxgeticon?seq=676091982&username=@f6b3c8cb0545b1ee3fb1fc7e1c0d17b4&skey=@crypt_d5e09b21_f6d4eb8ff700a7cb445282cdd5f699d7
p7202
sVKeyWord
p7203
Vgh_
p7204
sVProvince
p7205
V\u5317\u4eac
p7206
sVPYInitial
p7207
VXB
p7208
sVRemarkName
p7209
g55
sVIsOwner
p7210
I0
sVSex
p7211
I0
sVStarFriend
p7212
I0
sVHideInputBarFlag
p7213
I0
sVChatRoomId
p7214
I0
sVEncryChatRoomId
p7215
g55
sVAttrStatus
p7216
I0
sVStatues
p7217
I0
stp7218
Rp7219
I1
bag34
(g6876
g39
(dp7220
VUserName
p7221
V@0d6bde305efd340b72597c7ffb5a00f8
p7222
sVCity
p7223
V\u5e7f\u5dde
p7224
sVSnsFlag
p7225
I0
sVDisplayName
p7226
g55
sVUniFriend
p7227
I0
sVMemberCount
p7228
I0
sVOwnerUin
p7229
I0
sVMemberList
p7230
g51
sVAlias
p7231
g55
sVPYQuanPin
p7232
Vweixinyundong
p7233
sVSignature
p7234
V\u4e5f\u8bb8\u4f60\u65e9\u5df2\u4e60\u60ef\u4e00\u4e2a\u4eba\u8fd0\u52a8\u7684\u5b64\u72ec\uff0c\u5374\u4e5f\u5076\u5c14\u6e34\u671b\u5f97\u5230\u8d5e\u8d4f\u3002\u52a0\u5165\u5fae\u4fe1\u8fd0\u52a8\uff0c\u548c\u670b\u53cb\u4e00\u8d77\u70b9\u8d5e\u4e92\u52a8\u3001\u62a2\u5360\u5c01\u9762\uff0c\u5206\u4eab\u8fd0\u52a8\u7684\u5feb\u4e50\u3002
p7235
sVRemarkPYInitial
p7236
g55
sVContactFlag
p7237
I513
sVUin
p7238
I0
sVNickName
p7239
V\u5fae\u4fe1\u8fd0\u52a8
p7240
sVAppAccountFlag
p7241
I0
sVVerifyFlag
p7242
I24
sVRemarkPYQuanPin
p7243
g55
sVHeadImgUrl
p7244
V/cgi-bin/mmwebwx-bin/webwxgeticon?seq=683223435&username=@0d6bde305efd340b72597c7ffb5a00f8&skey=@crypt_d5e09b21_f6d4eb8ff700a7cb445282cdd5f699d7
p7245
sVKeyWord
p7246
Vgh_
p7247
sVProvince
p7248
V\u5e7f\u4e1c
p7249
sVPYInitial
p7250
VWXYD
p7251
sVRemarkName
p7252
g55
sVIsOwner
p7253
I0
sVSex
p7254
I0
sVStarFriend
p7255
I0
sVHideInputBarFlag
p7256
I0
sVChatRoomId
p7257
I0
sVEncryChatRoomId
p7258
g55
sVAttrStatus
p7259
I0
sVStatues
p7260
I0
stp7261
Rp7262
I1
bag34
(g6876
g39
(dp7263
VUserName
p7264
V@1a1434c6b70343f077bd3d6d7bda2ac8
p7265
sVCity
p7266
V\u94f6\u5ddd
p7267
sVSnsFlag
p7268
I0
sVDisplayName
p7269
g55
sVUniFriend
p7270
I0
sVMemberCount
p7271
I0
sVOwnerUin
p7272
I0
sVMemberList
p7273
g51
sVAlias
p7274
g55
sVPYQuanPin
p7275
Vshizuishanyinxing
p7276
sVSignature
p7277
V\u4e3a\u60a8\u5e26\u6765\u77f3\u5634\u5c71\u94f6\u884c\u6700\u65b0\u7684\u4ea7\u54c1\u4fe1\u606f\u3001\u6d3b\u52a8\u4fe1\u606f\u548c\u94f6\u884c\u8d44\u8baf\u3002
p7278
sVRemarkPYInitial
p7279
g55
sVContactFlag
p7280
I1
sVUin
p7281
I0
sVNickName
p7282
V\u77f3\u5634\u5c71\u94f6\u884c
p7283
sVAppAccountFlag
p7284
I0
sVVerifyFlag
p7285
I24
sVRemarkPYQuanPin
p7286
g55
sVHeadImgUrl
p7287
V/cgi-bin/mmwebwx-bin/webwxgeticon?seq=683225837&username=@1a1434c6b70343f077bd3d6d7bda2ac8&skey=@crypt_d5e09b21_f6d4eb8ff700a7cb445282cdd5f699d7
p7288
sVKeyWord
p7289
Vgh_
p7290
sVProvince
p7291
V\u5b81\u590f
p7292
sVPYInitial
p7293
VSZSYX
p7294
sVRemarkName
p7295
g55
sVIsOwner
p7296
I0
sVSex
p7297
I0
sVStarFriend
p7298
I0
sVHideInputBarFlag
p7299
I0
sVChatRoomId
p7300
I0
sVEncryChatRoomId
p7301
g55
sVAttrStatus
p7302
I0
sVStatues
p7303
I0
stp7304
Rp7305
I1
bag34
(g6876
g39
(dp7306
VUserName
p7307
V@2dddd56c544af44cf564930cbf26ecef
p7308
sVCity
p7309
V\u94f6\u5ddd
p7310
sVSnsFlag
p7311
I0
sVDisplayName
p7312
g55
sVUniFriend
p7313
I0
sVMemberCount
p7314
I0
sVOwnerUin
p7315
I0
sVMemberList
p7316
g51
sVAlias
p7317
g55
sVPYQuanPin
p7318
Vningxiazhaopin
p7319
sVSignature
p7320
V\u5b81\u590f\u62db\u8058\u5e73\u53f0\uff0c\u6bcf\u5929\u4e3a\u60a8\u63a8\u5b81\u590f\u5404\u7c7b\u4f01\u4e1a\u7528\u4eba\u5355\u4f4d\u62db\u8058\u4fe1\u606f\u3001\u4e8b\u4e1a\u5355\u4f4d\u4fe1\u606f\u3001\u6c42\u804c\u653b\u7565\uff0c\u52a9\u60a8\u627e\u5230\u7406\u60f3\u7684\u5de5\u4f5c\uff01
p7321
sVRemarkPYInitial
p7322
g55
sVContactFlag
p7323
I1
sVUin
p7324
I0
sVNickName
p7325
V\u5b81\u590f\u62db\u8058
p7326
sVAppAccountFlag
p7327
I0
sVVerifyFlag
p7328
I24
sVRemarkPYQuanPin
p7329
g55
sVHeadImgUrl
p7330
V/cgi-bin/mmwebwx-bin/webwxgeticon?seq=676049053&username=@2dddd56c544af44cf564930cbf26ecef&skey=@crypt_d5e09b21_f6d4eb8ff700a7cb445282cdd5f699d7
p7331
sVKeyWord
p7332
Vgh_
p7333
sVProvince
p7334
V\u5b81\u590f
p7335
sVPYInitial
p7336
VNXZP
p7337
sVRemarkName
p7338
g55
sVIsOwner
p7339
I0
sVSex
p7340
I0
sVStarFriend
p7341
I0
sVHideInputBarFlag
p7342
I0
sVChatRoomId
p7343
I0
sVEncryChatRoomId
p7344
g55
sVAttrStatus
p7345
I0
sVStatues
p7346
I0
stp7347
Rp7348
I1
bag34
(g6876
g39
(dp7349
VUserName
p7350
V@30df7eae82ed95a74d1847f286ad5fa7
p7351
sVCity
p7352
V\u94f6\u5ddd
p7353
sVSnsFlag
p7354
I0
sVDisplayName
p7355
g55
sVUniFriend
p7356
I0
sVMemberCount
p7357
I0
sVOwnerUin
p7358
I0
sVMemberList
p7359
g51
sVAlias
p7360
g55
sVPYQuanPin
p7361
Vningxiaweizhaopin
p7362
sVSignature
p7363
V\u627e\u5230\u66f4\u9002\u5408\u7684\u5de5\u4f5c\uff0c\u6210\u5c31\u66f4\u597d\u7684\u81ea\u5df1\u3002
p7364
sVRemarkPYInitial
p7365
g55
sVContactFlag
p7366
I1
sVUin
p7367
I0
sVNickName
p7368
V\u5b81\u590f\u5fae\u62db\u8058
p7369
sVAppAccountFlag
p7370
I0
sVVerifyFlag
p7371
I8
sVRemarkPYQuanPin
p7372
g55
sVHeadImgUrl
p7373
V/cgi-bin/mmwebwx-bin/webwxgeticon?seq=676048937&username=@30df7eae82ed95a74d1847f286ad5fa7&skey=@crypt_d5e09b21_f6d4eb8ff700a7cb445282cdd5f699d7
p7374
sVKeyWord
p7375
Vgh_
p7376
sVProvince
p7377
V\u5b81\u590f
p7378
sVPYInitial
p7379
VNXWZP
p7380
sVRemarkName
p7381
g55
sVIsOwner
p7382
I0
sVSex
p7383
I0
sVStarFriend
p7384
I0
sVHideInputBarFlag
p7385
I0
sVChatRoomId
p7386
I0
sVEncryChatRoomId
p7387
g55
sVAttrStatus
p7388
I0
sVStatues
p7389
I0
stp7390
Rp7391
I1
bag34
(g6876
g39
(dp7392
VUserName
p7393
V@dffe182a36b9fbd619bf0472096daeef
p7394
sVCity
p7395
V\u6c5f\u5317
p7396
sVSnsFlag
p7397
I0
sVDisplayName
p7398
g55
sVUniFriend
p7399
I0
sVMemberCount
p7400
I0
sVOwnerUin
p7401
I0
sVMemberList
p7402
g51
sVAlias
p7403
g55
sVPYQuanPin
p7404
Vyinxingcongyezigekaoshifuwuzhongxin
p7405
sVSignature
p7406
V\u8003\u8bd5\u670d\u52a1\u4e2d\u5fc3\uff0c\u5206\u4eab\u6700\u65b0\u8003\u8bd5\u8d44\u6599\u548c\u8bd5\u9898\u3002
p7407
sVRemarkPYInitial
p7408
g55
sVContactFlag
p7409
I1
sVUin
p7410
I0
sVNickName
p7411
V\u94f6\u884c\u4ece\u4e1a\u8d44\u683c\u8003\u8bd5\u670d\u52a1\u4e2d\u5fc3
p7412
sVAppAccountFlag
p7413
I0
sVVerifyFlag
p7414
I24
sVRemarkPYQuanPin
p7415
g55
sVHeadImgUrl
p7416
V/cgi-bin/mmwebwx-bin/webwxgeticon?seq=683248621&username=@dffe182a36b9fbd619bf0472096daeef&skey=@crypt_d5e09b21_f6d4eb8ff700a7cb445282cdd5f699d7
p7417
sVKeyWord
p7418
Vgh_
p7419
sVProvince
p7420
V\u91cd\u5e86
p7421
sVPYInitial
p7422
VYXCYZGKSFWZX
p7423
sVRemarkName
p7424
g55
sVIsOwner
p7425
I0
sVSex
p7426
I0
sVStarFriend
p7427
I0
sVHideInputBarFlag
p7428
I0
sVChatRoomId
p7429
I0
sVEncryChatRoomId
p7430
g55
sVAttrStatus
p7431
I0
sVStatues
p7432
I0
stp7433
Rp7434
I1
bag34
(g6876
g39
(dp7435
VUserName
p7436
V@b00d3d1111afc84ffcb3ba6cbfece36b
p7437
sVCity
p7438
V\u671d\u9633
p7439
sVSnsFlag
p7440
I0
sVDisplayName
p7441
g55
sVUniFriend
p7442
I0
sVMemberCount
p7443
I0
sVOwnerUin
p7444
I0
sVMemberList
p7445
g51
sVAlias
p7446
g55
sVPYQuanPin
p7447
Vjiagoushizhilu
p7448
sVSignature
p7449
V\u67b6\u6784\u5e08\u4e4b\u8def\uff0c\u575a\u6301\u64b0\u5199\u63a5\u5730\u6c14\u7684\u67b6\u6784\u6587\u7ae0
p7450
sVRemarkPYInitial
p7451
g55
sVContactFlag
p7452
I1
sVUin
p7453
I0
sVNickName
p7454
V\u67b6\u6784\u5e08\u4e4b\u8def
p7455
sVAppAccountFlag
p7456
I0
sVVerifyFlag
p7457
I8
sVRemarkPYQuanPin
p7458
g55
sVHeadImgUrl
p7459
V/cgi-bin/mmwebwx-bin/webwxgeticon?seq=683250747&username=@b00d3d1111afc84ffcb3ba6cbfece36b&skey=@crypt_d5e09b21_f6d4eb8ff700a7cb445282cdd5f699d7
p7460
sVKeyWord
p7461
Vgh_
p7462
sVProvince
p7463
V\u5317\u4eac
p7464
sVPYInitial
p7465
VJGSZL
p7466
sVRemarkName
p7467
g55
sVIsOwner
p7468
I0
sVSex
p7469
I0
sVStarFriend
p7470
I0
sVHideInputBarFlag
p7471
I0
sVChatRoomId
p7472
I0
sVEncryChatRoomId
p7473
g55
sVAttrStatus
p7474
I0
sVStatues
p7475
I0
stp7476
Rp7477
I1
bag34
(g6876
g39
(dp7478
VUserName
p7479
V@6b7be1db965b11aae66736c7b2e2d366
p7480
sVCity
p7481
V\u5e7f\u5dde
p7482
sVSnsFlag
p7483
I0
sVDisplayName
p7484
g55
sVUniFriend
p7485
I0
sVMemberCount
p7486
I0
sVOwnerUin
p7487
I0
sVMemberList
p7488
g51
sVAlias
p7489
g55
sVPYQuanPin
p7490
Vsailei
p7491
sVSignature
p7492
V\u62d2\u7edd\u67af\u71e5\uff01\u8d5b\u96f7\u8bdd\u8f66\uff0c\u539f\u6765\u6c7d\u8f66\u8fd8\u80fd\u8fd9\u6837\u8bb2~
p7493
sVRemarkPYInitial
p7494
g55
sVContactFlag
p7495
I1
sVUin
p7496
I0
sVNickName
p7497
V\u8d5b\u96f7
p7498
sVAppAccountFlag
p7499
I0
sVVerifyFlag
p7500
I8
sVRemarkPYQuanPin
p7501
g55
sVHeadImgUrl
p7502
V/cgi-bin/mmwebwx-bin/webwxgeticon?seq=683283327&username=@6b7be1db965b11aae66736c7b2e2d366&skey=@crypt_d5e09b21_f6d4eb8ff700a7cb445282cdd5f699d7
p7503
sVKeyWord
p7504
Vgh_
p7505
sVProvince
p7506
V\u5e7f\u4e1c
p7507
sVPYInitial
p7508
VSL
p7509
sVRemarkName
p7510
g55
sVIsOwner
p7511
I0
sVSex
p7512
I0
sVStarFriend
p7513
I0
sVHideInputBarFlag
p7514
I0
sVChatRoomId
p7515
I0
sVEncryChatRoomId
p7516
g55
sVAttrStatus
p7517
I0
sVStatues
p7518
I0
stp7519
Rp7520
I1
bag34
(g6876
g39
(dp7521
VUserName
p7522
V@d8bfc1c8e8b5c24b09d2dc72b2868d19
p7523
sVCity
p7524
V\u6d77\u6dc0
p7525
sVSnsFlag
p7526
I0
sVDisplayName
p7527
g55
sVUniFriend
p7528
I0
sVMemberCount
p7529
I0
sVOwnerUin
p7530
I0
sVMemberList
p7531
g51
sVAlias
p7532
g55
sVPYQuanPin
p7533
Vyouzhihuizixun
p7534
sVSignature
p7535
V\u5317\u4eac\u4f18\u667a\u6c47\u54a8\u8be2\u6709\u9650\u516c\u53f8\u662f\u7531\u591a\u540d\u8d44\u6df1\u91d1\u878d\u884c\u4e1a\u4e13\u5bb6\u5171\u540c\u53d1\u8d77\u521b\u7acb\u4e3a\u91d1\u878d\u884c\u4e1a\u63d0\u4f9b\u4e13\u4e1a\u9886\u57df\u54a8\u8be2\u7684\u201c\u4e92\u8054\u7f51+\u201d\u667a\u6167\u5e73\u53f0\uff0c\u79c9\u627f\u5f00\u653e\u3001\u5408\u4f5c\u3001\u5171\u8d62\u7684\u4e92\u8054\u7f51\u7cbe\u795e\uff0c\u4ee5\u4f20\u7edf+\u521b\u65b0\u7684\u670d\u52a1\u6a21\u5f0f\uff0c\u63d0\u4f9b\u5168\u9762\u3001\u4e13\u4e1a\u7684\u54a8\u8be2\u53ca\u8d44\u8baf\u670d\u52a1\u3002
p7536
sVRemarkPYInitial
p7537
g55
sVContactFlag
p7538
I1
sVUin
p7539
I0
sVNickName
p7540
V\u4f18\u667a\u6c47\u54a8\u8be2
p7541
sVAppAccountFlag
p7542
I0
sVVerifyFlag
p7543
I24
sVRemarkPYQuanPin
p7544
g55
sVHeadImgUrl
p7545
V/cgi-bin/mmwebwx-bin/webwxgeticon?seq=683284157&username=@d8bfc1c8e8b5c24b09d2dc72b2868d19&skey=@crypt_d5e09b21_f6d4eb8ff700a7cb445282cdd5f699d7
p7546
sVKeyWord
p7547
Vgh_
p7548
sVProvince
p7549
V\u5317\u4eac
p7550
sVPYInitial
p7551
VYZHZX
p7552
sVRemarkName
p7553
g55
sVIsOwner
p7554
I0
sVSex
p7555
I0
sVStarFriend
p7556
I0
sVHideInputBarFlag
p7557
I0
sVChatRoomId
p7558
I0
sVEncryChatRoomId
p7559
g55
sVAttrStatus
p7560
I0
sVStatues
p7561
I0
stp7562
Rp7563
I1
bag34
(g6876
g39
(dp7564
VUserName
p7565
V@a7d75caabbbcdacbbfad2659353a9001
p7566
sVCity
p7567
V\u6d77\u6dc0
p7568
sVSnsFlag
p7569
I0
sVDisplayName
p7570
g55
sVUniFriend
p7571
I0
sVMemberCount
p7572
I0
sVOwnerUin
p7573
I0
sVMemberList
p7574
g51
sVAlias
p7575
g55
sVPYQuanPin
p7576
V38haochepingzhongxin
p7577
sVSignature
p7578
V\u539f\u521b\u3001\u72ec\u7acb\u3001\u516c\u6b63\u7684\u6c7d\u8f66\u6587\u5316\u4f20\u64ad\u4e2d\u5fc3
p7579
sVRemarkPYInitial
p7580
g55
sVContactFlag
p7581
I1
sVUin
p7582
I0
sVNickName
p7583
V38\u53f7\u8f66\u8bc4\u4e2d\u5fc3
p7584
sVAppAccountFlag
p7585
I0
sVVerifyFlag
p7586
I24
sVRemarkPYQuanPin
p7587
g55
sVHeadImgUrl
p7588
V/cgi-bin/mmwebwx-bin/webwxgeticon?seq=683286193&username=@a7d75caabbbcdacbbfad2659353a9001&skey=@crypt_d5e09b21_f6d4eb8ff700a7cb445282cdd5f699d7
p7589
sVKeyWord
p7590
Vgh_
p7591
sVProvince
p7592
V\u5317\u4eac
p7593
sVPYInitial
p7594
V38HCPZX
p7595
sVRemarkName
p7596
g55
sVIsOwner
p7597
I0
sVSex
p7598
I0
sVStarFriend
p7599
I0
sVHideInputBarFlag
p7600
I0
sVChatRoomId
p7601
I0
sVEncryChatRoomId
p7602
g55
sVAttrStatus
p7603
I0
sVStatues
p7604
I0
stp7605
Rp7606
I1
bag34
(g6876
g39
(dp7607
VUserName
p7608
V@4372fb4ae6a406ec88913a4b0cc53122
p7609
sVCity
p7610
V\u6d77\u6dc0
p7611
sVSnsFlag
p7612
I0
sVDisplayName
p7613
g55
sVUniFriend
p7614
I0
sVMemberCount
p7615
I0
sVOwnerUin
p7616
I0
sVMemberList
p7617
g51
sVAlias
p7618
g55
sVPYQuanPin
p7619
Vaiqiyi
p7620
sVSignature
p7621
V\u7231\u5947\u827a(iQIYI.COM)\uff0c\u7efc\u5408\u89c6\u9891\u95e8\u6237\u7f51\u7ad9\u3002\u60a6\u4eab\u54c1\u8d28\u3002
p7622
sVRemarkPYInitial
p7623
g55
sVContactFlag
p7624
I1
sVUin
p7625
I0
sVNickName
p7626
V\u7231\u5947\u827a
p7627
sVAppAccountFlag
p7628
I0
sVVerifyFlag
p7629
I24
sVRemarkPYQuanPin
p7630
g55
sVHeadImgUrl
p7631
V/cgi-bin/mmwebwx-bin/webwxgeticon?seq=683303036&username=@4372fb4ae6a406ec88913a4b0cc53122&skey=@crypt_d5e09b21_f6d4eb8ff700a7cb445282cdd5f699d7
p7632
sVKeyWord
p7633
Vgh_
p7634
sVProvince
p7635
V\u5317\u4eac
p7636
sVPYInitial
p7637
VAQY
p7638
sVRemarkName
p7639
g55
sVIsOwner
p7640
I0
sVSex
p7641
I0
sVStarFriend
p7642
I0
sVHideInputBarFlag
p7643
I0
sVChatRoomId
p7644
I0
sVEncryChatRoomId
p7645
g55
sVAttrStatus
p7646
I0
sVStatues
p7647
I0
stp7648
Rp7649
I1
bag34
(g6876
g39
(dp7650
VUserName
p7651
V@8b4484c32a01c52d7f122a4f270d4a53
p7652
sVCity
p7653
g55
sVSnsFlag
p7654
I0
sVDisplayName
p7655
g55
sVUniFriend
p7656
I0
sVMemberCount
p7657
I0
sVOwnerUin
p7658
I0
sVMemberList
p7659
g51
sVAlias
p7660
g55
sVPYQuanPin
p7661
VaiqiyiVIP
p7662
sVSignature
p7663
V\u7231\u5947\u827aVIP\u4f1a\u5458\uff0c\u6700\u95ea\u4eae\u7528\u6237\u805a\u96c6\u5730\uff01\u6211\u4eec\u7316\u72c2\uff0c\u7545\u4eab\u9876\u7ea7\u79c1\u4eba\u5f71\u9662\uff1b\u6211\u4eec\u5f97\u745f\uff0c\u96f6\u8ddd\u79bb\u63a5\u89e6\u5927\u724c\u5076\u50cf\uff1b\u6211\u4eec\u62db\u6447\uff0c\u7535\u5f71\u8d44\u8baf\u5b9e\u65f6\u638c\u63e1\uff1b\u6211\u4eec\u5f97\u610f\uff0c\u968f\u65f6\u6709\u673a\u4f1a\u62bd\u5927\u5956\uff01
p7664
sVRemarkPYInitial
p7665
g55
sVContactFlag
p7666
I1
sVUin
p7667
I0
sVNickName
p7668
V\u7231\u5947\u827aVIP
p7669
sVAppAccountFlag
p7670
I0
sVVerifyFlag
p7671
I24
sVRemarkPYQuanPin
p7672
g55
sVHeadImgUrl
p7673
V/cgi-bin/mmwebwx-bin/webwxgeticon?seq=683303048&username=@8b4484c32a01c52d7f122a4f270d4a53&skey=@crypt_d5e09b21_f6d4eb8ff700a7cb445282cdd5f699d7
p7674
sVKeyWord
p7675
Vgh_
p7676
sVProvince
p7677
V\u5317\u4eac
p7678
sVPYInitial
p7679
VAQYVIP
p7680
sVRemarkName
p7681
g55
sVIsOwner
p7682
I0
sVSex
p7683
I0
sVStarFriend
p7684
I0
sVHideInputBarFlag
p7685
I0
sVChatRoomId
p7686
I0
sVEncryChatRoomId
p7687
g55
sVAttrStatus
p7688
I0
sVStatues
p7689
I0
stp7690
Rp7691
I1
bag34
(g6876
g39
(dp7692
VUserName
p7693
V@31521d27dd0b045007e87e859193d58e
p7694
sVCity
p7695
V\u94f6\u5ddd
p7696
sVSnsFlag
p7697
I0
sVDisplayName
p7698
g55
sVUniFriend
p7699
I0
sVMemberCount
p7700
I0
sVOwnerUin
p7701
I0
sVMemberList
p7702
g51
sVAlias
p7703
g55
sVPYQuanPin
p7704
Vningxiaxinchaobeiwanglaoanquangongfangyanxidasai
p7705
sVSignature
p7706
V\u5b81\u590f\u7f51\u7edc\u653b\u9632\u5927\u8d5b\u670d\u52a1\u5e73\u53f0\u662f\u7528\u4e8e\u63a5\u6536\u62a5\u540d\u4fe1\u606f\u3001\u5927\u8d5b\u76f8\u5173\u4fe1\u606f\u7684\u53d1\u5e03\u53ca\u5927\u8d5b\u5b9e\u65f6\u4fe1\u606f\u66f4\u65b0\u3002
p7707
sVRemarkPYInitial
p7708
g55
sVContactFlag
p7709
I1
sVUin
p7710
I0
sVNickName
p7711
V\u5b81\u590f\u65b0\u6f6e\u676f\u7f51\u7edc\u5b89\u5168\u653b\u9632\u6f14\u4e60\u5927\u8d5b
p7712
sVAppAccountFlag
p7713
I0
sVVerifyFlag
p7714
I8
sVRemarkPYQuanPin
p7715
g55
sVHeadImgUrl
p7716
V/cgi-bin/mmwebwx-bin/webwxgeticon?seq=683305076&username=@31521d27dd0b045007e87e859193d58e&skey=@crypt_d5e09b21_f6d4eb8ff700a7cb445282cdd5f699d7
p7717
sVKeyWord
p7718
Vgh_
p7719
sVProvince
p7720
V\u5b81\u590f
p7721
sVPYInitial
p7722
VNXXCBWLAQGFYXDS
p7723
sVRemarkName
p7724
g55
sVIsOwner
p7725
I0
sVSex
p7726
I0
sVStarFriend
p7727
I0
sVHideInputBarFlag
p7728
I0
sVChatRoomId
p7729
I0
sVEncryChatRoomId
p7730
g55
sVAttrStatus
p7731
I0
sVStatues
p7732
I0
stp7733
Rp7734
I1
batp7735
Rp7736
I1
bssS'loginInfo'
p7737
(dp7738
S'SyncKey'
p7739
(dp7740
VCount
p7741
I4
sVList
p7742
(lp7743
(dp7744
VVal
p7745
I683307493
sVKey
p7746
I1
sa(dp7747
VVal
p7748
I683310965
sVKey
p7749
I2
sa(dp7750
VVal
p7751
I683310634
sVKey
p7752
I3
sa(dp7753
VVal
p7754
I1503726736
sVKey
p7755
I1000
sassS'syncUrl'
p7756
S'https://webpush.wx.qq.com/cgi-bin/mmwebwx-bin'
p7757
sS'skey'
p7758
V@crypt_d5e09b21_f6d4eb8ff700a7cb445282cdd5f699d7
p7759
sS'wxuin'
p7760
V454684975
p7761
sS'synckey'
p7762
S'1_683307493|2_683310965|3_683310634|1000_1503726736'
p7763
sS'url'
p7764
Vhttps://wx.qq.com/cgi-bin/mmwebwx-bin
p7765
sS'pass_ticket'
p7766
VOnOKZtJusr5Q9%2BwQ017%2FvJu6mg7CP%2B3JBdeGbaxumfT3inGeU5jlAmOdqcQ2KRNG
p7767
sS'wxsid'
p7768
VnoEyP6t4ZMJ4eTEy
p7769
sS'InviteStartCount'
p7770
I40
sS'User'
p7771
g34
(g38
g39
(dp7772
g41
g31
sg43
g44
sg45
g44
sg46
I0
sg48
g51
sg52
g55
sg54
g55
sg83
I1
sg57
I0
sg58
I0
sg59
g44
sg60
g44
sg62
g55
sg63
g55
sg65
I0
sg67
I0
sg68
I1
sg69
g44
sg70
I0
sg73
I0
sg71
I17
sg72
I0
sg47
I0
sg74
g44
sg75
g6061
sg77
I0
sg78
g6062
sg80
g55
sg81
g6063
sg56
I454684975
sg84
I0
sg85
I0
stp7773
Rp7774
I1
bsS'fileUrl'
p7775
S'https://file.wx.qq.com/cgi-bin/mmwebwx-bin'
p7776
sS'BaseRequest'
p7777
(dp7778
g56
g7761
sS'Skey'
p7779
g7759
sS'DeviceID'
p7780
g7767
sS'Sid'
p7781
g7769
ssS'deviceid'
p7782
S'e732702261269974'
p7783
ss.